
lma_driver:     file format elf64-x86-64


Disassembly of section .init:

0000000000001000 <_init>:
    1000:	f3 0f 1e fa          	endbr64 
    1004:	48 83 ec 08          	sub    $0x8,%rsp
    1008:	48 8b 05 d9 5f 00 00 	mov    0x5fd9(%rip),%rax        # 6fe8 <__gmon_start__>
    100f:	48 85 c0             	test   %rax,%rax
    1012:	74 02                	je     1016 <_init+0x16>
    1014:	ff d0                	callq  *%rax
    1016:	48 83 c4 08          	add    $0x8,%rsp
    101a:	c3                   	retq   

Disassembly of section .plt:

0000000000001020 <.plt>:
    1020:	ff 35 4a 5f 00 00    	pushq  0x5f4a(%rip)        # 6f70 <_GLOBAL_OFFSET_TABLE_+0x8>
    1026:	f2 ff 25 4b 5f 00 00 	bnd jmpq *0x5f4b(%rip)        # 6f78 <_GLOBAL_OFFSET_TABLE_+0x10>
    102d:	0f 1f 00             	nopl   (%rax)
    1030:	f3 0f 1e fa          	endbr64 
    1034:	68 00 00 00 00       	pushq  $0x0
    1039:	f2 e9 e1 ff ff ff    	bnd jmpq 1020 <.plt>
    103f:	90                   	nop
    1040:	f3 0f 1e fa          	endbr64 
    1044:	68 01 00 00 00       	pushq  $0x1
    1049:	f2 e9 d1 ff ff ff    	bnd jmpq 1020 <.plt>
    104f:	90                   	nop
    1050:	f3 0f 1e fa          	endbr64 
    1054:	68 02 00 00 00       	pushq  $0x2
    1059:	f2 e9 c1 ff ff ff    	bnd jmpq 1020 <.plt>
    105f:	90                   	nop
    1060:	f3 0f 1e fa          	endbr64 
    1064:	68 03 00 00 00       	pushq  $0x3
    1069:	f2 e9 b1 ff ff ff    	bnd jmpq 1020 <.plt>
    106f:	90                   	nop
    1070:	f3 0f 1e fa          	endbr64 
    1074:	68 04 00 00 00       	pushq  $0x4
    1079:	f2 e9 a1 ff ff ff    	bnd jmpq 1020 <.plt>
    107f:	90                   	nop
    1080:	f3 0f 1e fa          	endbr64 
    1084:	68 05 00 00 00       	pushq  $0x5
    1089:	f2 e9 91 ff ff ff    	bnd jmpq 1020 <.plt>
    108f:	90                   	nop
    1090:	f3 0f 1e fa          	endbr64 
    1094:	68 06 00 00 00       	pushq  $0x6
    1099:	f2 e9 81 ff ff ff    	bnd jmpq 1020 <.plt>
    109f:	90                   	nop
    10a0:	f3 0f 1e fa          	endbr64 
    10a4:	68 07 00 00 00       	pushq  $0x7
    10a9:	f2 e9 71 ff ff ff    	bnd jmpq 1020 <.plt>
    10af:	90                   	nop
    10b0:	f3 0f 1e fa          	endbr64 
    10b4:	68 08 00 00 00       	pushq  $0x8
    10b9:	f2 e9 61 ff ff ff    	bnd jmpq 1020 <.plt>
    10bf:	90                   	nop
    10c0:	f3 0f 1e fa          	endbr64 
    10c4:	68 09 00 00 00       	pushq  $0x9
    10c9:	f2 e9 51 ff ff ff    	bnd jmpq 1020 <.plt>
    10cf:	90                   	nop
    10d0:	f3 0f 1e fa          	endbr64 
    10d4:	68 0a 00 00 00       	pushq  $0xa
    10d9:	f2 e9 41 ff ff ff    	bnd jmpq 1020 <.plt>
    10df:	90                   	nop

Disassembly of section .plt.got:

00000000000010e0 <__cxa_finalize@plt>:
    10e0:	f3 0f 1e fa          	endbr64 
    10e4:	f2 ff 25 0d 5f 00 00 	bnd jmpq *0x5f0d(%rip)        # 6ff8 <__cxa_finalize@GLIBC_2.2.5>
    10eb:	0f 1f 44 00 00       	nopl   0x0(%rax,%rax,1)

Disassembly of section .plt.sec:

00000000000010f0 <free@plt>:
    10f0:	f3 0f 1e fa          	endbr64 
    10f4:	f2 ff 25 85 5e 00 00 	bnd jmpq *0x5e85(%rip)        # 6f80 <free@GLIBC_2.2.5>
    10fb:	0f 1f 44 00 00       	nopl   0x0(%rax,%rax,1)

0000000000001100 <__isoc99_fscanf@plt>:
    1100:	f3 0f 1e fa          	endbr64 
    1104:	f2 ff 25 7d 5e 00 00 	bnd jmpq *0x5e7d(%rip)        # 6f88 <__isoc99_fscanf@GLIBC_2.7>
    110b:	0f 1f 44 00 00       	nopl   0x0(%rax,%rax,1)

0000000000001110 <puts@plt>:
    1110:	f3 0f 1e fa          	endbr64 
    1114:	f2 ff 25 75 5e 00 00 	bnd jmpq *0x5e75(%rip)        # 6f90 <puts@GLIBC_2.2.5>
    111b:	0f 1f 44 00 00       	nopl   0x0(%rax,%rax,1)

0000000000001120 <fclose@plt>:
    1120:	f3 0f 1e fa          	endbr64 
    1124:	f2 ff 25 6d 5e 00 00 	bnd jmpq *0x5e6d(%rip)        # 6f98 <fclose@GLIBC_2.2.5>
    112b:	0f 1f 44 00 00       	nopl   0x0(%rax,%rax,1)

0000000000001130 <__stack_chk_fail@plt>:
    1130:	f3 0f 1e fa          	endbr64 
    1134:	f2 ff 25 65 5e 00 00 	bnd jmpq *0x5e65(%rip)        # 6fa0 <__stack_chk_fail@GLIBC_2.4>
    113b:	0f 1f 44 00 00       	nopl   0x0(%rax,%rax,1)

0000000000001140 <malloc@plt>:
    1140:	f3 0f 1e fa          	endbr64 
    1144:	f2 ff 25 5d 5e 00 00 	bnd jmpq *0x5e5d(%rip)        # 6fa8 <malloc@GLIBC_2.2.5>
    114b:	0f 1f 44 00 00       	nopl   0x0(%rax,%rax,1)

0000000000001150 <__printf_chk@plt>:
    1150:	f3 0f 1e fa          	endbr64 
    1154:	f2 ff 25 55 5e 00 00 	bnd jmpq *0x5e55(%rip)        # 6fb0 <__printf_chk@GLIBC_2.3.4>
    115b:	0f 1f 44 00 00       	nopl   0x0(%rax,%rax,1)

0000000000001160 <fopen@plt>:
    1160:	f3 0f 1e fa          	endbr64 
    1164:	f2 ff 25 4d 5e 00 00 	bnd jmpq *0x5e4d(%rip)        # 6fb8 <fopen@GLIBC_2.2.5>
    116b:	0f 1f 44 00 00       	nopl   0x0(%rax,%rax,1)

0000000000001170 <exit@plt>:
    1170:	f3 0f 1e fa          	endbr64 
    1174:	f2 ff 25 45 5e 00 00 	bnd jmpq *0x5e45(%rip)        # 6fc0 <exit@GLIBC_2.2.5>
    117b:	0f 1f 44 00 00       	nopl   0x0(%rax,%rax,1)

0000000000001180 <fwrite@plt>:
    1180:	f3 0f 1e fa          	endbr64 
    1184:	f2 ff 25 3d 5e 00 00 	bnd jmpq *0x5e3d(%rip)        # 6fc8 <fwrite@GLIBC_2.2.5>
    118b:	0f 1f 44 00 00       	nopl   0x0(%rax,%rax,1)

0000000000001190 <__fprintf_chk@plt>:
    1190:	f3 0f 1e fa          	endbr64 
    1194:	f2 ff 25 35 5e 00 00 	bnd jmpq *0x5e35(%rip)        # 6fd0 <__fprintf_chk@GLIBC_2.3.4>
    119b:	0f 1f 44 00 00       	nopl   0x0(%rax,%rax,1)

Disassembly of section .text:

00000000000011a0 <main>:
    11a0:	f3 0f 1e fa          	endbr64 
    11a4:	41 57                	push   %r15
    11a6:	41 56                	push   %r14
    11a8:	41 55                	push   %r13
    11aa:	41 54                	push   %r12
    11ac:	55                   	push   %rbp
    11ad:	53                   	push   %rbx
    11ae:	48 81 ec f8 00 00 00 	sub    $0xf8,%rsp
    11b5:	64 48 8b 04 25 28 00 	mov    %fs:0x28,%rax
    11bc:	00 00 
    11be:	48 89 84 24 e8 00 00 	mov    %rax,0xe8(%rsp)
    11c5:	00 
    11c6:	31 c0                	xor    %eax,%eax
    11c8:	4c 8d 74 24 60       	lea    0x60(%rsp),%r14
    11cd:	4c 89 f7             	mov    %r14,%rdi
    11d0:	4c 89 74 24 38       	mov    %r14,0x38(%rsp)
    11d5:	4d 89 f5             	mov    %r14,%r13
    11d8:	e8 53 04 00 00       	callq  1630 <dino_open>
    11dd:	4c 89 f7             	mov    %r14,%rdi
    11e0:	48 8d 74 24 40       	lea    0x40(%rsp),%rsi
    11e5:	e8 16 05 00 00       	callq  1700 <input_scalar>
    11ea:	4c 89 f7             	mov    %r14,%rdi
    11ed:	48 8d 74 24 44       	lea    0x44(%rsp),%rsi
    11f2:	e8 09 05 00 00       	callq  1700 <input_scalar>
    11f7:	4c 89 f7             	mov    %r14,%rdi
    11fa:	48 8d 74 24 4c       	lea    0x4c(%rsp),%rsi
    11ff:	e8 fc 04 00 00       	callq  1700 <input_scalar>
    1204:	48 8d 74 24 48       	lea    0x48(%rsp),%rsi
    1209:	4c 89 f7             	mov    %r14,%rdi
    120c:	e8 ef 04 00 00       	callq  1700 <input_scalar>
    1211:	8b 7c 24 4c          	mov    0x4c(%rsp),%edi
    1215:	e8 86 39 00 00       	callq  4ba0 <ialloc_1d>
    121a:	8b 54 24 4c          	mov    0x4c(%rsp),%edx
    121e:	4c 89 f7             	mov    %r14,%rdi
    1221:	48 89 c3             	mov    %rax,%rbx
    1224:	48 89 c6             	mov    %rax,%rsi
    1227:	48 89 44 24 28       	mov    %rax,0x28(%rsp)
    122c:	e8 ef 04 00 00       	callq  1720 <input_1d_int>
    1231:	8b 33                	mov    (%rbx),%esi
    1233:	8b 7c 24 4c          	mov    0x4c(%rsp),%edi
    1237:	e8 74 39 00 00       	callq  4bb0 <ialloc_2d>
    123c:	8b 0b                	mov    (%rbx),%ecx
    123e:	8b 54 24 4c          	mov    0x4c(%rsp),%edx
    1242:	4c 89 f7             	mov    %r14,%rdi
    1245:	48 89 c6             	mov    %rax,%rsi
    1248:	48 89 44 24 30       	mov    %rax,0x30(%rsp)
    124d:	49 89 c4             	mov    %rax,%r12
    1250:	e8 2b 05 00 00       	callq  1780 <input_2d_int>
    1255:	4c 89 f7             	mov    %r14,%rdi
    1258:	48 8d 74 24 50       	lea    0x50(%rsp),%rsi
    125d:	e8 9e 04 00 00       	callq  1700 <input_scalar>
    1262:	4c 89 f7             	mov    %r14,%rdi
    1265:	48 8d 74 24 54       	lea    0x54(%rsp),%rsi
    126a:	e8 91 04 00 00       	callq  1700 <input_scalar>
    126f:	8b 74 24 40          	mov    0x40(%rsp),%esi
    1273:	8b 7c 24 50          	mov    0x50(%rsp),%edi
    1277:	e8 34 39 00 00       	callq  4bb0 <ialloc_2d>
    127c:	8b 4c 24 40          	mov    0x40(%rsp),%ecx
    1280:	8b 54 24 50          	mov    0x50(%rsp),%edx
    1284:	4c 89 f7             	mov    %r14,%rdi
    1287:	48 89 c6             	mov    %rax,%rsi
    128a:	48 89 44 24 08       	mov    %rax,0x8(%rsp)
    128f:	e8 ec 04 00 00       	callq  1780 <input_2d_int>
    1294:	4c 89 f7             	mov    %r14,%rdi
    1297:	48 8d 74 24 58       	lea    0x58(%rsp),%rsi
    129c:	e8 5f 04 00 00       	callq  1700 <input_scalar>
    12a1:	4c 89 f7             	mov    %r14,%rdi
    12a4:	48 8d 74 24 5c       	lea    0x5c(%rsp),%rsi
    12a9:	e8 52 04 00 00       	callq  1700 <input_scalar>
    12ae:	8b 74 24 40          	mov    0x40(%rsp),%esi
    12b2:	8b 7c 24 58          	mov    0x58(%rsp),%edi
    12b6:	e8 f5 38 00 00       	callq  4bb0 <ialloc_2d>
    12bb:	8b 4c 24 40          	mov    0x40(%rsp),%ecx
    12bf:	8b 54 24 58          	mov    0x58(%rsp),%edx
    12c3:	4c 89 f7             	mov    %r14,%rdi
    12c6:	48 89 c6             	mov    %rax,%rsi
    12c9:	48 89 44 24 10       	mov    %rax,0x10(%rsp)
    12ce:	e8 ad 04 00 00       	callq  1780 <input_2d_int>
    12d3:	8b 7c 24 54          	mov    0x54(%rsp),%edi
    12d7:	e8 44 39 00 00       	callq  4c20 <dalloc_1d>
    12dc:	8b 7c 24 5c          	mov    0x5c(%rsp),%edi
    12e0:	49 89 c6             	mov    %rax,%r14
    12e3:	e8 38 39 00 00       	callq  4c20 <dalloc_1d>
    12e8:	8b 7c 24 54          	mov    0x54(%rsp),%edi
    12ec:	48 89 c5             	mov    %rax,%rbp
    12ef:	e8 2c 39 00 00       	callq  4c20 <dalloc_1d>
    12f4:	8b 7c 24 50          	mov    0x50(%rsp),%edi
    12f8:	0f af 7c 24 58       	imul   0x58(%rsp),%edi
    12fd:	0f af 7c 24 44       	imul   0x44(%rsp),%edi
    1302:	48 89 44 24 20       	mov    %rax,0x20(%rsp)
    1307:	48 63 ff             	movslq %edi,%rdi
    130a:	48 c1 e7 03          	shl    $0x3,%rdi
    130e:	e8 2d fe ff ff       	callq  1140 <malloc@plt>
    1313:	8b 4c 24 58          	mov    0x58(%rsp),%ecx
    1317:	8b 54 24 50          	mov    0x50(%rsp),%edx
    131b:	4c 89 ef             	mov    %r13,%rdi
    131e:	44 8b 44 24 44       	mov    0x44(%rsp),%r8d
    1323:	48 89 c6             	mov    %rax,%rsi
    1326:	49 89 c7             	mov    %rax,%r15
    1329:	e8 12 06 00 00       	callq  1940 <input_3d_double_1D>
    132e:	8b 54 24 54          	mov    0x54(%rsp),%edx
    1332:	4c 89 f6             	mov    %r14,%rsi
    1335:	4c 89 ef             	mov    %r13,%rdi
    1338:	e8 d3 04 00 00       	callq  1810 <input_1d_double>
    133d:	8b 54 24 5c          	mov    0x5c(%rsp),%edx
    1341:	48 89 ee             	mov    %rbp,%rsi
    1344:	4c 89 ef             	mov    %r13,%rdi
    1347:	e8 c4 04 00 00       	callq  1810 <input_1d_double>
    134c:	8b 54 24 54          	mov    0x54(%rsp),%edx
    1350:	48 8b 74 24 20       	mov    0x20(%rsp),%rsi
    1355:	4c 89 ef             	mov    %r13,%rdi
    1358:	e8 b3 04 00 00       	callq  1810 <input_1d_double>
    135d:	48 8d 3d a0 3c 00 00 	lea    0x3ca0(%rip),%rdi        # 5004 <_IO_stdin_used+0x4>
    1364:	e8 a7 fd ff ff       	callq  1110 <puts@plt>
    1369:	8b 54 24 4c          	mov    0x4c(%rsp),%edx
    136d:	85 d2                	test   %edx,%edx
    136f:	0f 8e b7 00 00 00    	jle    142c <main+0x28c>
    1375:	c7 44 24 1c 00 00 00 	movl   $0x0,0x1c(%rsp)
    137c:	00 
    137d:	4c 89 f8             	mov    %r15,%rax
    1380:	4d 89 e7             	mov    %r12,%r15
    1383:	49 89 c4             	mov    %rax,%r12
    1386:	66 2e 0f 1f 84 00 00 	nopw   %cs:0x0(%rax,%rax,1)
    138d:	00 00 00 
    1390:	8b 03                	mov    (%rbx),%eax
    1392:	45 31 ed             	xor    %r13d,%r13d
    1395:	85 c0                	test   %eax,%eax
    1397:	7e 77                	jle    1410 <main+0x270>
    1399:	4c 89 e1             	mov    %r12,%rcx
    139c:	48 89 d8             	mov    %rbx,%rax
    139f:	49 89 ec             	mov    %rbp,%r12
    13a2:	4c 89 fb             	mov    %r15,%rbx
    13a5:	48 89 cd             	mov    %rcx,%rbp
    13a8:	49 89 c7             	mov    %rax,%r15
    13ab:	0f 1f 44 00 00       	nopl   0x0(%rax,%rax,1)
    13b0:	48 8b 13             	mov    (%rbx),%rdx
    13b3:	49 89 e9             	mov    %rbp,%r9
    13b6:	4c 89 e1             	mov    %r12,%rcx
    13b9:	42 8b 3c aa          	mov    (%rdx,%r13,4),%edi
    13bd:	ff 74 24 10          	pushq  0x10(%rsp)
    13c1:	49 83 c5 01          	add    $0x1,%r13
    13c5:	8b 54 24 64          	mov    0x64(%rsp),%edx
    13c9:	83 ef 01             	sub    $0x1,%edi
    13cc:	52                   	push   %rdx
    13cd:	8b 54 24 68          	mov    0x68(%rsp),%edx
    13d1:	52                   	push   %rdx
    13d2:	ff 74 24 20          	pushq  0x20(%rsp)
    13d6:	8b 54 24 74          	mov    0x74(%rsp),%edx
    13da:	52                   	push   %rdx
    13db:	8b 54 24 78          	mov    0x78(%rsp),%edx
    13df:	52                   	push   %rdx
    13e0:	44 8b 44 24 74       	mov    0x74(%rsp),%r8d
    13e5:	4c 89 f2             	mov    %r14,%rdx
    13e8:	8b 74 24 78          	mov    0x78(%rsp),%esi
    13ec:	e8 3f 07 00 00       	callq  1b30 <matrix_vector_code_1D>
    13f1:	48 83 c4 30          	add    $0x30,%rsp
    13f5:	45 39 2f             	cmp    %r13d,(%r15)
    13f8:	7f b6                	jg     13b0 <main+0x210>
    13fa:	48 89 e9             	mov    %rbp,%rcx
    13fd:	4c 89 f8             	mov    %r15,%rax
    1400:	8b 54 24 4c          	mov    0x4c(%rsp),%edx
    1404:	4c 89 e5             	mov    %r12,%rbp
    1407:	49 89 df             	mov    %rbx,%r15
    140a:	49 89 cc             	mov    %rcx,%r12
    140d:	48 89 c3             	mov    %rax,%rbx
    1410:	83 44 24 1c 01       	addl   $0x1,0x1c(%rsp)
    1415:	8b 44 24 1c          	mov    0x1c(%rsp),%eax
    1419:	48 83 c3 04          	add    $0x4,%rbx
    141d:	49 83 c7 08          	add    $0x8,%r15
    1421:	39 d0                	cmp    %edx,%eax
    1423:	0f 8c 67 ff ff ff    	jl     1390 <main+0x1f0>
    1429:	4d 89 e7             	mov    %r12,%r15
    142c:	48 8b 5c 24 20       	mov    0x20(%rsp),%rbx
    1431:	ba 38 00 00 00       	mov    $0x38,%edx
    1436:	f2 41 0f 10 86 c0 01 	movsd  0x1c0(%r14),%xmm0
    143d:	00 00 
    143f:	48 8d 35 d0 3b 00 00 	lea    0x3bd0(%rip),%rsi        # 5016 <_IO_stdin_used+0x16>
    1446:	bf 01 00 00 00       	mov    $0x1,%edi
    144b:	b8 02 00 00 00       	mov    $0x2,%eax
    1450:	f2 0f 10 8b c0 01 00 	movsd  0x1c0(%rbx),%xmm1
    1457:	00 
    1458:	e8 f3 fc ff ff       	callq  1150 <__printf_chk@plt>
    145d:	ba 39 00 00 00       	mov    $0x39,%edx
    1462:	bf 01 00 00 00       	mov    $0x1,%edi
    1467:	f2 41 0f 10 86 c8 01 	movsd  0x1c8(%r14),%xmm0
    146e:	00 00 
    1470:	f2 0f 10 8b c8 01 00 	movsd  0x1c8(%rbx),%xmm1
    1477:	00 
    1478:	48 8d 35 97 3b 00 00 	lea    0x3b97(%rip),%rsi        # 5016 <_IO_stdin_used+0x16>
    147f:	b8 02 00 00 00       	mov    $0x2,%eax
    1484:	e8 c7 fc ff ff       	callq  1150 <__printf_chk@plt>
    1489:	ba 3a 00 00 00       	mov    $0x3a,%edx
    148e:	bf 01 00 00 00       	mov    $0x1,%edi
    1493:	f2 41 0f 10 86 d0 01 	movsd  0x1d0(%r14),%xmm0
    149a:	00 00 
    149c:	f2 0f 10 8b d0 01 00 	movsd  0x1d0(%rbx),%xmm1
    14a3:	00 
    14a4:	48 8d 35 6b 3b 00 00 	lea    0x3b6b(%rip),%rsi        # 5016 <_IO_stdin_used+0x16>
    14ab:	b8 02 00 00 00       	mov    $0x2,%eax
    14b0:	e8 9b fc ff ff       	callq  1150 <__printf_chk@plt>
    14b5:	48 8b 7c 24 38       	mov    0x38(%rsp),%rdi
    14ba:	e8 31 02 00 00       	callq  16f0 <dino_close>
    14bf:	48 8b 7c 24 28       	mov    0x28(%rsp),%rdi
    14c4:	e8 27 fc ff ff       	callq  10f0 <free@plt>
    14c9:	48 8b 7c 24 30       	mov    0x30(%rsp),%rdi
    14ce:	e8 1d fc ff ff       	callq  10f0 <free@plt>
    14d3:	48 8b 7c 24 08       	mov    0x8(%rsp),%rdi
    14d8:	e8 13 fc ff ff       	callq  10f0 <free@plt>
    14dd:	48 8b 7c 24 10       	mov    0x10(%rsp),%rdi
    14e2:	e8 09 fc ff ff       	callq  10f0 <free@plt>
    14e7:	4c 89 ff             	mov    %r15,%rdi
    14ea:	e8 01 fc ff ff       	callq  10f0 <free@plt>
    14ef:	4c 89 f7             	mov    %r14,%rdi
    14f2:	e8 f9 fb ff ff       	callq  10f0 <free@plt>
    14f7:	48 89 ef             	mov    %rbp,%rdi
    14fa:	e8 f1 fb ff ff       	callq  10f0 <free@plt>
    14ff:	48 89 df             	mov    %rbx,%rdi
    1502:	e8 e9 fb ff ff       	callq  10f0 <free@plt>
    1507:	48 8b 84 24 e8 00 00 	mov    0xe8(%rsp),%rax
    150e:	00 
    150f:	64 48 33 04 25 28 00 	xor    %fs:0x28,%rax
    1516:	00 00 
    1518:	75 14                	jne    152e <main+0x38e>
    151a:	48 81 c4 f8 00 00 00 	add    $0xf8,%rsp
    1521:	31 c0                	xor    %eax,%eax
    1523:	5b                   	pop    %rbx
    1524:	5d                   	pop    %rbp
    1525:	41 5c                	pop    %r12
    1527:	41 5d                	pop    %r13
    1529:	41 5e                	pop    %r14
    152b:	41 5f                	pop    %r15
    152d:	c3                   	retq   
    152e:	e8 fd fb ff ff       	callq  1130 <__stack_chk_fail@plt>
    1533:	66 2e 0f 1f 84 00 00 	nopw   %cs:0x0(%rax,%rax,1)
    153a:	00 00 00 
    153d:	0f 1f 00             	nopl   (%rax)

0000000000001540 <_start>:
    1540:	f3 0f 1e fa          	endbr64 
    1544:	31 ed                	xor    %ebp,%ebp
    1546:	49 89 d1             	mov    %rdx,%r9
    1549:	5e                   	pop    %rsi
    154a:	48 89 e2             	mov    %rsp,%rdx
    154d:	48 83 e4 f0          	and    $0xfffffffffffffff0,%rsp
    1551:	50                   	push   %rax
    1552:	54                   	push   %rsp
    1553:	4c 8d 05 16 38 00 00 	lea    0x3816(%rip),%r8        # 4d70 <__libc_csu_fini>
    155a:	48 8d 0d 9f 37 00 00 	lea    0x379f(%rip),%rcx        # 4d00 <__libc_csu_init>
    1561:	48 8d 3d 38 fc ff ff 	lea    -0x3c8(%rip),%rdi        # 11a0 <main>
    1568:	ff 15 72 5a 00 00    	callq  *0x5a72(%rip)        # 6fe0 <__libc_start_main@GLIBC_2.2.5>
    156e:	f4                   	hlt    
    156f:	90                   	nop

0000000000001570 <deregister_tm_clones>:
    1570:	48 8d 3d 99 5a 00 00 	lea    0x5a99(%rip),%rdi        # 7010 <__TMC_END__>
    1577:	48 8d 05 92 5a 00 00 	lea    0x5a92(%rip),%rax        # 7010 <__TMC_END__>
    157e:	48 39 f8             	cmp    %rdi,%rax
    1581:	74 15                	je     1598 <deregister_tm_clones+0x28>
    1583:	48 8b 05 4e 5a 00 00 	mov    0x5a4e(%rip),%rax        # 6fd8 <_ITM_deregisterTMCloneTable>
    158a:	48 85 c0             	test   %rax,%rax
    158d:	74 09                	je     1598 <deregister_tm_clones+0x28>
    158f:	ff e0                	jmpq   *%rax
    1591:	0f 1f 80 00 00 00 00 	nopl   0x0(%rax)
    1598:	c3                   	retq   
    1599:	0f 1f 80 00 00 00 00 	nopl   0x0(%rax)

00000000000015a0 <register_tm_clones>:
    15a0:	48 8d 3d 69 5a 00 00 	lea    0x5a69(%rip),%rdi        # 7010 <__TMC_END__>
    15a7:	48 8d 35 62 5a 00 00 	lea    0x5a62(%rip),%rsi        # 7010 <__TMC_END__>
    15ae:	48 29 fe             	sub    %rdi,%rsi
    15b1:	48 89 f0             	mov    %rsi,%rax
    15b4:	48 c1 ee 3f          	shr    $0x3f,%rsi
    15b8:	48 c1 f8 03          	sar    $0x3,%rax
    15bc:	48 01 c6             	add    %rax,%rsi
    15bf:	48 d1 fe             	sar    %rsi
    15c2:	74 14                	je     15d8 <register_tm_clones+0x38>
    15c4:	48 8b 05 25 5a 00 00 	mov    0x5a25(%rip),%rax        # 6ff0 <_ITM_registerTMCloneTable>
    15cb:	48 85 c0             	test   %rax,%rax
    15ce:	74 08                	je     15d8 <register_tm_clones+0x38>
    15d0:	ff e0                	jmpq   *%rax
    15d2:	66 0f 1f 44 00 00    	nopw   0x0(%rax,%rax,1)
    15d8:	c3                   	retq   
    15d9:	0f 1f 80 00 00 00 00 	nopl   0x0(%rax)

00000000000015e0 <__do_global_dtors_aux>:
    15e0:	f3 0f 1e fa          	endbr64 
    15e4:	80 3d 3d 5a 00 00 00 	cmpb   $0x0,0x5a3d(%rip)        # 7028 <completed.8060>
    15eb:	75 2b                	jne    1618 <__do_global_dtors_aux+0x38>
    15ed:	55                   	push   %rbp
    15ee:	48 83 3d 02 5a 00 00 	cmpq   $0x0,0x5a02(%rip)        # 6ff8 <__cxa_finalize@GLIBC_2.2.5>
    15f5:	00 
    15f6:	48 89 e5             	mov    %rsp,%rbp
    15f9:	74 0c                	je     1607 <__do_global_dtors_aux+0x27>
    15fb:	48 8b 3d 06 5a 00 00 	mov    0x5a06(%rip),%rdi        # 7008 <__dso_handle>
    1602:	e8 d9 fa ff ff       	callq  10e0 <__cxa_finalize@plt>
    1607:	e8 64 ff ff ff       	callq  1570 <deregister_tm_clones>
    160c:	c6 05 15 5a 00 00 01 	movb   $0x1,0x5a15(%rip)        # 7028 <completed.8060>
    1613:	5d                   	pop    %rbp
    1614:	c3                   	retq   
    1615:	0f 1f 00             	nopl   (%rax)
    1618:	c3                   	retq   
    1619:	0f 1f 80 00 00 00 00 	nopl   0x0(%rax)

0000000000001620 <frame_dummy>:
    1620:	f3 0f 1e fa          	endbr64 
    1624:	e9 77 ff ff ff       	jmpq   15a0 <register_tm_clones>
    1629:	0f 1f 80 00 00 00 00 	nopl   0x0(%rax)

0000000000001630 <dino_open>:
    1630:	f3 0f 1e fa          	endbr64 
    1634:	41 54                	push   %r12
    1636:	b8 61 74 00 00       	mov    $0x7461,%eax
    163b:	4c 8d 67 08          	lea    0x8(%rdi),%r12
    163f:	48 8d 35 e0 39 00 00 	lea    0x39e0(%rip),%rsi        # 5026 <_IO_stdin_used+0x26>
    1646:	53                   	push   %rbx
    1647:	48 89 fb             	mov    %rdi,%rbx
    164a:	48 83 ec 08          	sub    $0x8,%rsp
    164e:	66 89 47 1c          	mov    %ax,0x1c(%rdi)
    1652:	66 0f 6f 05 06 3a 00 	movdqa 0x3a06(%rip),%xmm0        # 5060 <_IO_stdin_used+0x60>
    1659:	00 
    165a:	c7 47 18 6d 70 2e 64 	movl   $0x642e706d,0x18(%rdi)
    1661:	c6 47 1e 00          	movb   $0x0,0x1e(%rdi)
    1665:	0f 11 47 08          	movups %xmm0,0x8(%rdi)
    1669:	4c 89 e7             	mov    %r12,%rdi
    166c:	e8 ef fa ff ff       	callq  1160 <fopen@plt>
    1671:	48 89 03             	mov    %rax,(%rbx)
    1674:	48 85 c0             	test   %rax,%rax
    1677:	74 08                	je     1681 <dino_open+0x51>
    1679:	48 83 c4 08          	add    $0x8,%rsp
    167d:	5b                   	pop    %rbx
    167e:	41 5c                	pop    %r12
    1680:	c3                   	retq   
    1681:	48 8b 0d 98 59 00 00 	mov    0x5998(%rip),%rcx        # 7020 <stderr@@GLIBC_2.2.5>
    1688:	ba 1b 00 00 00       	mov    $0x1b,%edx
    168d:	be 01 00 00 00       	mov    $0x1,%esi
    1692:	48 8d 3d 8f 39 00 00 	lea    0x398f(%rip),%rdi        # 5028 <_IO_stdin_used+0x28>
    1699:	e8 e2 fa ff ff       	callq  1180 <fwrite@plt>
    169e:	4c 89 e1             	mov    %r12,%rcx
    16a1:	be 01 00 00 00       	mov    $0x1,%esi
    16a6:	31 c0                	xor    %eax,%eax
    16a8:	48 8b 3d 71 59 00 00 	mov    0x5971(%rip),%rdi        # 7020 <stderr@@GLIBC_2.2.5>
    16af:	48 8d 15 8e 39 00 00 	lea    0x398e(%rip),%rdx        # 5044 <_IO_stdin_used+0x44>
    16b6:	e8 d5 fa ff ff       	callq  1190 <__fprintf_chk@plt>
    16bb:	48 8b 0b             	mov    (%rbx),%rcx
    16be:	be 01 00 00 00       	mov    $0x1,%esi
    16c3:	31 c0                	xor    %eax,%eax
    16c5:	48 8b 3d 54 59 00 00 	mov    0x5954(%rip),%rdi        # 7020 <stderr@@GLIBC_2.2.5>
    16cc:	48 8d 15 76 39 00 00 	lea    0x3976(%rip),%rdx        # 5049 <_IO_stdin_used+0x49>
    16d3:	e8 b8 fa ff ff       	callq  1190 <__fprintf_chk@plt>
    16d8:	bf 01 00 00 00       	mov    $0x1,%edi
    16dd:	e8 8e fa ff ff       	callq  1170 <exit@plt>
    16e2:	66 66 2e 0f 1f 84 00 	data16 nopw %cs:0x0(%rax,%rax,1)
    16e9:	00 00 00 00 
    16ed:	0f 1f 00             	nopl   (%rax)

00000000000016f0 <dino_close>:
    16f0:	f3 0f 1e fa          	endbr64 
    16f4:	48 8b 3f             	mov    (%rdi),%rdi
    16f7:	e9 24 fa ff ff       	jmpq   1120 <fclose@plt>
    16fc:	0f 1f 40 00          	nopl   0x0(%rax)

0000000000001700 <input_scalar>:
    1700:	f3 0f 1e fa          	endbr64 
    1704:	48 8b 3f             	mov    (%rdi),%rdi
    1707:	48 89 f2             	mov    %rsi,%rdx
    170a:	31 c0                	xor    %eax,%eax
    170c:	48 8d 35 3a 39 00 00 	lea    0x393a(%rip),%rsi        # 504d <_IO_stdin_used+0x4d>
    1713:	e9 e8 f9 ff ff       	jmpq   1100 <__isoc99_fscanf@plt>
    1718:	0f 1f 84 00 00 00 00 	nopl   0x0(%rax,%rax,1)
    171f:	00 

0000000000001720 <input_1d_int>:
    1720:	f3 0f 1e fa          	endbr64 
    1724:	85 d2                	test   %edx,%edx
    1726:	7e 50                	jle    1778 <input_1d_int+0x58>
    1728:	41 55                	push   %r13
    172a:	8d 42 ff             	lea    -0x1(%rdx),%eax
    172d:	41 54                	push   %r12
    172f:	4c 8d 6c 86 04       	lea    0x4(%rsi,%rax,4),%r13
    1734:	4c 8d 25 12 39 00 00 	lea    0x3912(%rip),%r12        # 504d <_IO_stdin_used+0x4d>
    173b:	55                   	push   %rbp
    173c:	48 89 fd             	mov    %rdi,%rbp
    173f:	53                   	push   %rbx
    1740:	48 89 f3             	mov    %rsi,%rbx
    1743:	48 83 ec 08          	sub    $0x8,%rsp
    1747:	66 0f 1f 84 00 00 00 	nopw   0x0(%rax,%rax,1)
    174e:	00 00 
    1750:	48 8b 7d 00          	mov    0x0(%rbp),%rdi
    1754:	48 89 da             	mov    %rbx,%rdx
    1757:	4c 89 e6             	mov    %r12,%rsi
    175a:	31 c0                	xor    %eax,%eax
    175c:	48 83 c3 04          	add    $0x4,%rbx
    1760:	e8 9b f9 ff ff       	callq  1100 <__isoc99_fscanf@plt>
    1765:	4c 39 eb             	cmp    %r13,%rbx
    1768:	75 e6                	jne    1750 <input_1d_int+0x30>
    176a:	48 83 c4 08          	add    $0x8,%rsp
    176e:	5b                   	pop    %rbx
    176f:	5d                   	pop    %rbp
    1770:	41 5c                	pop    %r12
    1772:	41 5d                	pop    %r13
    1774:	c3                   	retq   
    1775:	0f 1f 00             	nopl   (%rax)
    1778:	c3                   	retq   
    1779:	0f 1f 80 00 00 00 00 	nopl   0x0(%rax)

0000000000001780 <input_2d_int>:
    1780:	f3 0f 1e fa          	endbr64 
    1784:	85 c9                	test   %ecx,%ecx
    1786:	7e 7f                	jle    1807 <input_2d_int+0x87>
    1788:	85 d2                	test   %edx,%edx
    178a:	7e 7b                	jle    1807 <input_2d_int+0x87>
    178c:	41 57                	push   %r15
    178e:	8d 41 ff             	lea    -0x1(%rcx),%eax
    1791:	41 56                	push   %r14
    1793:	48 8d 04 85 04 00 00 	lea    0x4(,%rax,4),%rax
    179a:	00 
    179b:	49 89 f6             	mov    %rsi,%r14
    179e:	41 55                	push   %r13
    17a0:	41 54                	push   %r12
    17a2:	4c 8d 25 a4 38 00 00 	lea    0x38a4(%rip),%r12        # 504d <_IO_stdin_used+0x4d>
    17a9:	55                   	push   %rbp
    17aa:	48 89 fd             	mov    %rdi,%rbp
    17ad:	53                   	push   %rbx
    17ae:	31 db                	xor    %ebx,%ebx
    17b0:	48 83 ec 18          	sub    $0x18,%rsp
    17b4:	48 89 44 24 08       	mov    %rax,0x8(%rsp)
    17b9:	8d 42 ff             	lea    -0x1(%rdx),%eax
    17bc:	4c 8d 6c c6 08       	lea    0x8(%rsi,%rax,8),%r13
    17c1:	0f 1f 80 00 00 00 00 	nopl   0x0(%rax)
    17c8:	4d 89 f7             	mov    %r14,%r15
    17cb:	0f 1f 44 00 00       	nopl   0x0(%rax,%rax,1)
    17d0:	49 8b 17             	mov    (%r15),%rdx
    17d3:	48 8b 7d 00          	mov    0x0(%rbp),%rdi
    17d7:	4c 89 e6             	mov    %r12,%rsi
    17da:	31 c0                	xor    %eax,%eax
    17dc:	49 83 c7 08          	add    $0x8,%r15
    17e0:	48 01 da             	add    %rbx,%rdx
    17e3:	e8 18 f9 ff ff       	callq  1100 <__isoc99_fscanf@plt>
    17e8:	4d 39 fd             	cmp    %r15,%r13
    17eb:	75 e3                	jne    17d0 <input_2d_int+0x50>
    17ed:	48 83 c3 04          	add    $0x4,%rbx
    17f1:	48 3b 5c 24 08       	cmp    0x8(%rsp),%rbx
    17f6:	75 d0                	jne    17c8 <input_2d_int+0x48>
    17f8:	48 83 c4 18          	add    $0x18,%rsp
    17fc:	5b                   	pop    %rbx
    17fd:	5d                   	pop    %rbp
    17fe:	41 5c                	pop    %r12
    1800:	41 5d                	pop    %r13
    1802:	41 5e                	pop    %r14
    1804:	41 5f                	pop    %r15
    1806:	c3                   	retq   
    1807:	c3                   	retq   
    1808:	0f 1f 84 00 00 00 00 	nopl   0x0(%rax,%rax,1)
    180f:	00 

0000000000001810 <input_1d_double>:
    1810:	f3 0f 1e fa          	endbr64 
    1814:	85 d2                	test   %edx,%edx
    1816:	7e 50                	jle    1868 <input_1d_double+0x58>
    1818:	41 55                	push   %r13
    181a:	8d 42 ff             	lea    -0x1(%rdx),%eax
    181d:	41 54                	push   %r12
    181f:	4c 8d 6c c6 08       	lea    0x8(%rsi,%rax,8),%r13
    1824:	4c 8d 25 25 38 00 00 	lea    0x3825(%rip),%r12        # 5050 <_IO_stdin_used+0x50>
    182b:	55                   	push   %rbp
    182c:	48 89 fd             	mov    %rdi,%rbp
    182f:	53                   	push   %rbx
    1830:	48 89 f3             	mov    %rsi,%rbx
    1833:	48 83 ec 08          	sub    $0x8,%rsp
    1837:	66 0f 1f 84 00 00 00 	nopw   0x0(%rax,%rax,1)
    183e:	00 00 
    1840:	48 8b 7d 00          	mov    0x0(%rbp),%rdi
    1844:	48 89 da             	mov    %rbx,%rdx
    1847:	4c 89 e6             	mov    %r12,%rsi
    184a:	31 c0                	xor    %eax,%eax
    184c:	48 83 c3 08          	add    $0x8,%rbx
    1850:	e8 ab f8 ff ff       	callq  1100 <__isoc99_fscanf@plt>
    1855:	4c 39 eb             	cmp    %r13,%rbx
    1858:	75 e6                	jne    1840 <input_1d_double+0x30>
    185a:	48 83 c4 08          	add    $0x8,%rsp
    185e:	5b                   	pop    %rbx
    185f:	5d                   	pop    %rbp
    1860:	41 5c                	pop    %r12
    1862:	41 5d                	pop    %r13
    1864:	c3                   	retq   
    1865:	0f 1f 00             	nopl   (%rax)
    1868:	c3                   	retq   
    1869:	0f 1f 80 00 00 00 00 	nopl   0x0(%rax)

0000000000001870 <input_3d_double>:
    1870:	f3 0f 1e fa          	endbr64 
    1874:	41 57                	push   %r15
    1876:	41 56                	push   %r14
    1878:	41 55                	push   %r13
    187a:	41 54                	push   %r12
    187c:	55                   	push   %rbp
    187d:	53                   	push   %rbx
    187e:	48 83 ec 28          	sub    $0x28,%rsp
    1882:	48 89 74 24 10       	mov    %rsi,0x10(%rsp)
    1887:	45 85 c0             	test   %r8d,%r8d
    188a:	0f 8e 97 00 00 00    	jle    1927 <input_3d_double+0xb7>
    1890:	89 d0                	mov    %edx,%eax
    1892:	89 ca                	mov    %ecx,%edx
    1894:	85 c9                	test   %ecx,%ecx
    1896:	0f 8e 8b 00 00 00    	jle    1927 <input_3d_double+0xb7>
    189c:	85 c0                	test   %eax,%eax
    189e:	0f 8e 83 00 00 00    	jle    1927 <input_3d_double+0xb7>
    18a4:	44 89 c1             	mov    %r8d,%ecx
    18a7:	83 ea 01             	sub    $0x1,%edx
    18aa:	83 e8 01             	sub    $0x1,%eax
    18ad:	49 89 fc             	mov    %rdi,%r12
    18b0:	83 e9 01             	sub    $0x1,%ecx
    18b3:	4c 8d 74 c6 08       	lea    0x8(%rsi,%rax,8),%r14
    18b8:	31 ed                	xor    %ebp,%ebp
    18ba:	48 8d 0c cd 08 00 00 	lea    0x8(,%rcx,8),%rcx
    18c1:	00 
    18c2:	4c 8d 2d 87 37 00 00 	lea    0x3787(%rip),%r13        # 5050 <_IO_stdin_used+0x50>
    18c9:	48 89 4c 24 18       	mov    %rcx,0x18(%rsp)
    18ce:	48 8d 0c d5 08 00 00 	lea    0x8(,%rdx,8),%rcx
    18d5:	00 
    18d6:	48 89 4c 24 08       	mov    %rcx,0x8(%rsp)
    18db:	0f 1f 44 00 00       	nopl   0x0(%rax,%rax,1)
    18e0:	31 db                	xor    %ebx,%ebx
    18e2:	66 0f 1f 44 00 00    	nopw   0x0(%rax,%rax,1)
    18e8:	4c 8b 7c 24 10       	mov    0x10(%rsp),%r15
    18ed:	0f 1f 00             	nopl   (%rax)
    18f0:	49 8b 07             	mov    (%r15),%rax
    18f3:	49 8b 3c 24          	mov    (%r12),%rdi
    18f7:	4c 89 ee             	mov    %r13,%rsi
    18fa:	49 83 c7 08          	add    $0x8,%r15
    18fe:	48 8b 14 18          	mov    (%rax,%rbx,1),%rdx
    1902:	31 c0                	xor    %eax,%eax
    1904:	48 01 ea             	add    %rbp,%rdx
    1907:	e8 f4 f7 ff ff       	callq  1100 <__isoc99_fscanf@plt>
    190c:	4d 39 fe             	cmp    %r15,%r14
    190f:	75 df                	jne    18f0 <input_3d_double+0x80>
    1911:	48 83 c3 08          	add    $0x8,%rbx
    1915:	48 39 5c 24 08       	cmp    %rbx,0x8(%rsp)
    191a:	75 cc                	jne    18e8 <input_3d_double+0x78>
    191c:	48 83 c5 08          	add    $0x8,%rbp
    1920:	48 3b 6c 24 18       	cmp    0x18(%rsp),%rbp
    1925:	75 b9                	jne    18e0 <input_3d_double+0x70>
    1927:	48 83 c4 28          	add    $0x28,%rsp
    192b:	5b                   	pop    %rbx
    192c:	5d                   	pop    %rbp
    192d:	41 5c                	pop    %r12
    192f:	41 5d                	pop    %r13
    1931:	41 5e                	pop    %r14
    1933:	41 5f                	pop    %r15
    1935:	c3                   	retq   
    1936:	66 2e 0f 1f 84 00 00 	nopw   %cs:0x0(%rax,%rax,1)
    193d:	00 00 00 

0000000000001940 <input_3d_double_1D>:
    1940:	f3 0f 1e fa          	endbr64 
    1944:	41 57                	push   %r15
    1946:	41 56                	push   %r14
    1948:	41 55                	push   %r13
    194a:	41 54                	push   %r12
    194c:	55                   	push   %rbp
    194d:	53                   	push   %rbx
    194e:	48 83 ec 38          	sub    $0x38,%rsp
    1952:	48 89 74 24 28       	mov    %rsi,0x28(%rsp)
    1957:	89 4c 24 14          	mov    %ecx,0x14(%rsp)
    195b:	45 85 c0             	test   %r8d,%r8d
    195e:	0f 8e bb 00 00 00    	jle    1a1f <input_3d_double_1D+0xdf>
    1964:	85 c9                	test   %ecx,%ecx
    1966:	0f 8e b3 00 00 00    	jle    1a1f <input_3d_double_1D+0xdf>
    196c:	89 d5                	mov    %edx,%ebp
    196e:	85 d2                	test   %edx,%edx
    1970:	0f 8e a9 00 00 00    	jle    1a1f <input_3d_double_1D+0xdf>
    1976:	41 8d 50 ff          	lea    -0x1(%r8),%edx
    197a:	44 89 c0             	mov    %r8d,%eax
    197d:	4c 8d 2d cc 36 00 00 	lea    0x36cc(%rip),%r13        # 5050 <_IO_stdin_used+0x50>
    1984:	49 89 fc             	mov    %rdi,%r12
    1987:	0f af c1             	imul   %ecx,%eax
    198a:	48 89 54 24 20       	mov    %rdx,0x20(%rsp)
    198f:	49 63 d0             	movslq %r8d,%rdx
    1992:	48 c7 44 24 18 00 00 	movq   $0x0,0x18(%rsp)
    1999:	00 00 
    199b:	48 c1 e2 03          	shl    $0x3,%rdx
    199f:	48 8b 4c 24 18       	mov    0x18(%rsp),%rcx
    19a4:	48 89 54 24 08       	mov    %rdx,0x8(%rsp)
    19a9:	48 63 d8             	movslq %eax,%rbx
    19ac:	48 c1 e3 03          	shl    $0x3,%rbx
    19b0:	48 8b 44 24 28       	mov    0x28(%rsp),%rax
    19b5:	c7 44 24 10 00 00 00 	movl   $0x0,0x10(%rsp)
    19bc:	00 
    19bd:	48 8d 04 c8          	lea    (%rax,%rcx,8),%rax
    19c1:	48 89 04 24          	mov    %rax,(%rsp)
    19c5:	0f 1f 00             	nopl   (%rax)
    19c8:	4c 8b 3c 24          	mov    (%rsp),%r15
    19cc:	45 31 f6             	xor    %r14d,%r14d
    19cf:	90                   	nop
    19d0:	49 8b 3c 24          	mov    (%r12),%rdi
    19d4:	4c 89 fa             	mov    %r15,%rdx
    19d7:	4c 89 ee             	mov    %r13,%rsi
    19da:	31 c0                	xor    %eax,%eax
    19dc:	41 83 c6 01          	add    $0x1,%r14d
    19e0:	49 01 df             	add    %rbx,%r15
    19e3:	e8 18 f7 ff ff       	callq  1100 <__isoc99_fscanf@plt>
    19e8:	44 39 f5             	cmp    %r14d,%ebp
    19eb:	75 e3                	jne    19d0 <input_3d_double_1D+0x90>
    19ed:	83 44 24 10 01       	addl   $0x1,0x10(%rsp)
    19f2:	48 8b 74 24 08       	mov    0x8(%rsp),%rsi
    19f7:	8b 44 24 10          	mov    0x10(%rsp),%eax
    19fb:	48 01 34 24          	add    %rsi,(%rsp)
    19ff:	39 44 24 14          	cmp    %eax,0x14(%rsp)
    1a03:	75 c3                	jne    19c8 <input_3d_double_1D+0x88>
    1a05:	48 8b 4c 24 18       	mov    0x18(%rsp),%rcx
    1a0a:	48 8d 41 01          	lea    0x1(%rcx),%rax
    1a0e:	48 39 4c 24 20       	cmp    %rcx,0x20(%rsp)
    1a13:	74 0a                	je     1a1f <input_3d_double_1D+0xdf>
    1a15:	48 89 44 24 18       	mov    %rax,0x18(%rsp)
    1a1a:	48 89 c1             	mov    %rax,%rcx
    1a1d:	eb 91                	jmp    19b0 <input_3d_double_1D+0x70>
    1a1f:	48 83 c4 38          	add    $0x38,%rsp
    1a23:	5b                   	pop    %rbx
    1a24:	5d                   	pop    %rbp
    1a25:	41 5c                	pop    %r12
    1a27:	41 5d                	pop    %r13
    1a29:	41 5e                	pop    %r14
    1a2b:	41 5f                	pop    %r15
    1a2d:	c3                   	retq   
    1a2e:	66 90                	xchg   %ax,%ax

0000000000001a30 <matrix_vector_code>:
    1a30:	f3 0f 1e fa          	endbr64 
    1a34:	41 57                	push   %r15
    1a36:	49 89 cb             	mov    %rcx,%r11
    1a39:	41 56                	push   %r14
    1a3b:	41 55                	push   %r13
    1a3d:	49 89 d5             	mov    %rdx,%r13
    1a40:	41 54                	push   %r12
    1a42:	55                   	push   %rbp
    1a43:	53                   	push   %rbx
    1a44:	8b 4c 24 38          	mov    0x38(%rsp),%ecx
    1a48:	8b 54 24 50          	mov    0x50(%rsp),%edx
    1a4c:	48 8b 6c 24 60       	mov    0x60(%rsp),%rbp
    1a51:	89 74 24 f4          	mov    %esi,-0xc(%rsp)
    1a55:	4c 89 4c 24 f8       	mov    %r9,-0x8(%rsp)
    1a5a:	85 f6                	test   %esi,%esi
    1a5c:	0f 8e be 00 00 00    	jle    1b20 <matrix_vector_code+0xf0>
    1a62:	48 63 c7             	movslq %edi,%rax
    1a65:	0f af f0             	imul   %eax,%esi
    1a68:	4c 8d 04 85 00 00 00 	lea    0x0(,%rax,4),%r8
    1a6f:	00 
    1a70:	4c 63 d6             	movslq %esi,%r10
    1a73:	85 c9                	test   %ecx,%ecx
    1a75:	0f 8e a5 00 00 00    	jle    1b20 <matrix_vector_code+0xf0>
    1a7b:	85 d2                	test   %edx,%edx
    1a7d:	0f 8e 9d 00 00 00    	jle    1b20 <matrix_vector_code+0xf0>
    1a83:	48 8b 5c 24 48       	mov    0x48(%rsp),%rbx
    1a88:	8d 41 ff             	lea    -0x1(%rcx),%eax
    1a8b:	49 c1 e2 03          	shl    $0x3,%r10
    1a8f:	31 c9                	xor    %ecx,%ecx
    1a91:	4c 8d 7c c3 08       	lea    0x8(%rbx,%rax,8),%r15
    1a96:	8d 5a ff             	lea    -0x1(%rdx),%ebx
    1a99:	0f 1f 80 00 00 00 00 	nopl   0x0(%rax)
    1aa0:	4c 8b 74 24 f8       	mov    -0x8(%rsp),%r14
    1aa5:	4c 8b 64 24 48       	mov    0x48(%rsp),%r12
    1aaa:	8d 79 ff             	lea    -0x1(%rcx),%edi
    1aad:	0f 1f 00             	nopl   (%rax)
    1ab0:	49 8b 04 24          	mov    (%r12),%rax
    1ab4:	4d 8b 0e             	mov    (%r14),%r9
    1ab7:	89 4c 24 f0          	mov    %ecx,-0x10(%rsp)
    1abb:	42 8b 34 00          	mov    (%rax,%r8,1),%esi
    1abf:	01 fe                	add    %edi,%esi
    1ac1:	48 63 c6             	movslq %esi,%rax
    1ac4:	49 8d 74 c5 00       	lea    0x0(%r13,%rax,8),%rsi
    1ac9:	31 c0                	xor    %eax,%eax
    1acb:	f2 0f 10 0e          	movsd  (%rsi),%xmm1
    1acf:	90                   	nop
    1ad0:	48 8b 54 c5 00       	mov    0x0(%rbp,%rax,8),%rdx
    1ad5:	42 8b 0c 02          	mov    (%rdx,%r8,1),%ecx
    1ad9:	01 f9                	add    %edi,%ecx
    1adb:	48 63 d1             	movslq %ecx,%rdx
    1ade:	49 8b 0c c1          	mov    (%r9,%rax,8),%rcx
    1ae2:	f2 41 0f 10 04 d3    	movsd  (%r11,%rdx,8),%xmm0
    1ae8:	48 89 c2             	mov    %rax,%rdx
    1aeb:	48 83 c0 01          	add    $0x1,%rax
    1aef:	f2 42 0f 59 04 11    	mulsd  (%rcx,%r10,1),%xmm0
    1af5:	f2 0f 58 c8          	addsd  %xmm0,%xmm1
    1af9:	f2 0f 11 0e          	movsd  %xmm1,(%rsi)
    1afd:	48 39 d3             	cmp    %rdx,%rbx
    1b00:	75 ce                	jne    1ad0 <matrix_vector_code+0xa0>
    1b02:	49 83 c4 08          	add    $0x8,%r12
    1b06:	8b 4c 24 f0          	mov    -0x10(%rsp),%ecx
    1b0a:	49 83 c6 08          	add    $0x8,%r14
    1b0e:	4d 39 e7             	cmp    %r12,%r15
    1b11:	75 9d                	jne    1ab0 <matrix_vector_code+0x80>
    1b13:	83 c1 01             	add    $0x1,%ecx
    1b16:	49 83 c2 08          	add    $0x8,%r10
    1b1a:	39 4c 24 f4          	cmp    %ecx,-0xc(%rsp)
    1b1e:	75 80                	jne    1aa0 <matrix_vector_code+0x70>
    1b20:	5b                   	pop    %rbx
    1b21:	5d                   	pop    %rbp
    1b22:	41 5c                	pop    %r12
    1b24:	41 5d                	pop    %r13
    1b26:	41 5e                	pop    %r14
    1b28:	41 5f                	pop    %r15
    1b2a:	c3                   	retq   
    1b2b:	0f 1f 44 00 00       	nopl   0x0(%rax,%rax,1)

0000000000001b30 <matrix_vector_code_1D>:
    1b30:	f3 0f 1e fa          	endbr64 
    1b34:	41 57                	push   %r15
    1b36:	49 89 ca             	mov    %rcx,%r10
    1b39:	41 56                	push   %r14
    1b3b:	41 55                	push   %r13
    1b3d:	41 54                	push   %r12
    1b3f:	55                   	push   %rbp
    1b40:	53                   	push   %rbx
    1b41:	48 83 ec 10          	sub    $0x10,%rsp
    1b45:	8b 4c 24 48          	mov    0x48(%rsp),%ecx
    1b49:	48 89 54 24 f8       	mov    %rdx,-0x8(%rsp)
    1b4e:	89 74 24 d4          	mov    %esi,-0x2c(%rsp)
    1b52:	8b 54 24 60          	mov    0x60(%rsp),%edx
    1b56:	44 89 44 24 c8       	mov    %r8d,-0x38(%rsp)
    1b5b:	85 c9                	test   %ecx,%ecx
    1b5d:	0f 8e 15 02 00 00    	jle    1d78 <matrix_vector_code_1D+0x248>
    1b63:	89 f0                	mov    %esi,%eax
    1b65:	89 f3                	mov    %esi,%ebx
    1b67:	0f af c7             	imul   %edi,%eax
    1b6a:	48 63 ff             	movslq %edi,%rdi
    1b6d:	48 8d 34 bd 00 00 00 	lea    0x0(,%rdi,4),%rsi
    1b74:	00 
    1b75:	48 89 74 24 a8       	mov    %rsi,-0x58(%rsp)
    1b7a:	85 d2                	test   %edx,%edx
    1b7c:	0f 8e f6 01 00 00    	jle    1d78 <matrix_vector_code_1D+0x248>
    1b82:	85 db                	test   %ebx,%ebx
    1b84:	0f 8e ee 01 00 00    	jle    1d78 <matrix_vector_code_1D+0x248>
    1b8a:	48 8b 7c 24 58       	mov    0x58(%rsp),%rdi
    1b8f:	44 89 c6             	mov    %r8d,%esi
    1b92:	83 e9 01             	sub    $0x1,%ecx
    1b95:	4d 89 cb             	mov    %r9,%r11
    1b98:	44 0f af c2          	imul   %edx,%r8d
    1b9c:	83 ea 01             	sub    $0x1,%edx
    1b9f:	c7 44 24 e8 00 00 00 	movl   $0x0,-0x18(%rsp)
    1ba6:	00 
    1ba7:	48 89 7c 24 d8       	mov    %rdi,-0x28(%rsp)
    1bac:	48 8d 7c cf 08       	lea    0x8(%rdi,%rcx,8),%rdi
    1bb1:	48 63 ce             	movslq %esi,%rcx
    1bb4:	48 8d 34 cd 00 00 00 	lea    0x0(,%rcx,8),%rsi
    1bbb:	00 
    1bbc:	48 89 7c 24 f0       	mov    %rdi,-0x10(%rsp)
    1bc1:	48 89 74 24 b8       	mov    %rsi,-0x48(%rsp)
    1bc6:	48 8b 74 24 70       	mov    0x70(%rsp),%rsi
    1bcb:	44 89 44 24 ec       	mov    %r8d,-0x14(%rsp)
    1bd0:	48 8d 74 d6 08       	lea    0x8(%rsi,%rdx,8),%rsi
    1bd5:	48 89 74 24 c0       	mov    %rsi,-0x40(%rsp)
    1bda:	89 de                	mov    %ebx,%esi
    1bdc:	d1 eb                	shr    %ebx
    1bde:	89 da                	mov    %ebx,%edx
    1be0:	89 f3                	mov    %esi,%ebx
    1be2:	83 e3 fe             	and    $0xfffffffe,%ebx
    1be5:	48 c1 e2 04          	shl    $0x4,%rdx
    1be9:	44 8d 2c 18          	lea    (%rax,%rbx,1),%r13d
    1bed:	89 5c 24 d0          	mov    %ebx,-0x30(%rsp)
    1bf1:	44 8d 7b ff          	lea    -0x1(%rbx),%r15d
    1bf5:	89 f3                	mov    %esi,%ebx
    1bf7:	83 eb 01             	sub    $0x1,%ebx
    1bfa:	48 98                	cltq   
    1bfc:	49 89 d4             	mov    %rdx,%r12
    1bff:	48 89 04 24          	mov    %rax,(%rsp)
    1c03:	89 d8                	mov    %ebx,%eax
    1c05:	89 5c 24 cc          	mov    %ebx,-0x34(%rsp)
    1c09:	48 89 44 24 e0       	mov    %rax,-0x20(%rsp)
    1c0e:	66 90                	xchg   %ax,%ax
    1c10:	48 63 44 24 e8       	movslq -0x18(%rsp),%rax
    1c15:	48 8b 5c 24 a8       	mov    -0x58(%rsp),%rbx
    1c1a:	49 89 c0             	mov    %rax,%r8
    1c1d:	48 03 04 24          	add    (%rsp),%rax
    1c21:	49 8d 34 c3          	lea    (%r11,%rax,8),%rsi
    1c25:	48 8b 44 24 d8       	mov    -0x28(%rsp),%rax
    1c2a:	48 8b 00             	mov    (%rax),%rax
    1c2d:	48 63 04 18          	movslq (%rax,%rbx,1),%rax
    1c31:	48 8b 5c 24 f8       	mov    -0x8(%rsp),%rbx
    1c36:	48 89 c2             	mov    %rax,%rdx
    1c39:	48 8d 7c c3 08       	lea    0x8(%rbx,%rax,8),%rdi
    1c3e:	48 8d 2c c3          	lea    (%rbx,%rax,8),%rbp
    1c42:	44 01 fa             	add    %r15d,%edx
    1c45:	48 89 7c 24 b0       	mov    %rdi,-0x50(%rsp)
    1c4a:	48 8d 4c c3 f8       	lea    -0x8(%rbx,%rax,8),%rcx
    1c4f:	48 63 d2             	movslq %edx,%rdx
    1c52:	48 89 6c 24 98       	mov    %rbp,-0x68(%rsp)
    1c57:	4c 89 e5             	mov    %r12,%rbp
    1c5a:	48 8d 3c d3          	lea    (%rbx,%rdx,8),%rdi
    1c5e:	48 8b 5c 24 70       	mov    0x70(%rsp),%rbx
    1c63:	0f 1f 44 00 00       	nopl   0x0(%rax,%rax,1)
    1c68:	48 8b 54 24 a8       	mov    -0x58(%rsp),%rdx
    1c6d:	48 8b 03             	mov    (%rbx),%rax
    1c70:	4c 8b 74 24 b0       	mov    -0x50(%rsp),%r14
    1c75:	48 63 04 10          	movslq (%rax,%rdx,1),%rax
    1c79:	48 89 c2             	mov    %rax,%rdx
    1c7c:	4d 8d 4c c2 f8       	lea    -0x8(%r10,%rax,8),%r9
    1c81:	48 8d 04 c5 08 00 00 	lea    0x8(,%rax,8),%rax
    1c88:	00 
    1c89:	48 89 44 24 90       	mov    %rax,-0x70(%rsp)
    1c8e:	48 8d 46 10          	lea    0x10(%rsi),%rax
    1c92:	48 39 c1             	cmp    %rax,%rcx
    1c95:	41 0f 93 c4          	setae  %r12b
    1c99:	4c 39 f6             	cmp    %r14,%rsi
    1c9c:	0f 93 c0             	setae  %al
    1c9f:	44 09 e0             	or     %r12d,%eax
    1ca2:	83 7c 24 cc 01       	cmpl   $0x1,-0x34(%rsp)
    1ca7:	41 0f 97 c4          	seta   %r12b
    1cab:	44 84 e0             	test   %r12b,%al
    1cae:	0f 84 dc 00 00 00    	je     1d90 <matrix_vector_code_1D+0x260>
    1cb4:	48 8b 44 24 90       	mov    -0x70(%rsp),%rax
    1cb9:	4c 01 d0             	add    %r10,%rax
    1cbc:	48 39 c1             	cmp    %rax,%rcx
    1cbf:	0f 93 44 24 a7       	setae  -0x59(%rsp)
    1cc4:	4d 39 f1             	cmp    %r14,%r9
    1cc7:	44 0f b6 74 24 a7    	movzbl -0x59(%rsp),%r14d
    1ccd:	41 0f 93 c4          	setae  %r12b
    1cd1:	31 c0                	xor    %eax,%eax
    1cd3:	45 08 e6             	or     %r12b,%r14b
    1cd6:	4c 8b 74 24 98       	mov    -0x68(%rsp),%r14
    1cdb:	0f 84 af 00 00 00    	je     1d90 <matrix_vector_code_1D+0x260>
    1ce1:	0f 1f 80 00 00 00 00 	nopl   0x0(%rax)
    1ce8:	66 0f 10 04 06       	movupd (%rsi,%rax,1),%xmm0
    1ced:	66 41 0f 10 0c 01    	movupd (%r9,%rax,1),%xmm1
    1cf3:	66 0f 10 14 01       	movupd (%rcx,%rax,1),%xmm2
    1cf8:	66 0f 59 c1          	mulpd  %xmm1,%xmm0
    1cfc:	66 0f 58 c2          	addpd  %xmm2,%xmm0
    1d00:	0f 11 04 01          	movups %xmm0,(%rcx,%rax,1)
    1d04:	48 83 c0 10          	add    $0x10,%rax
    1d08:	48 39 e8             	cmp    %rbp,%rax
    1d0b:	75 db                	jne    1ce8 <matrix_vector_code_1D+0x1b8>
    1d0d:	4c 89 74 24 98       	mov    %r14,-0x68(%rsp)
    1d12:	44 8b 74 24 d0       	mov    -0x30(%rsp),%r14d
    1d17:	44 39 74 24 d4       	cmp    %r14d,-0x2c(%rsp)
    1d1c:	74 20                	je     1d3e <matrix_vector_code_1D+0x20e>
    1d1e:	43 8d 04 28          	lea    (%r8,%r13,1),%eax
    1d22:	44 01 fa             	add    %r15d,%edx
    1d25:	48 98                	cltq   
    1d27:	48 63 d2             	movslq %edx,%rdx
    1d2a:	f2 41 0f 10 04 c3    	movsd  (%r11,%rax,8),%xmm0
    1d30:	f2 41 0f 59 04 d2    	mulsd  (%r10,%rdx,8),%xmm0
    1d36:	f2 0f 58 07          	addsd  (%rdi),%xmm0
    1d3a:	f2 0f 11 07          	movsd  %xmm0,(%rdi)
    1d3e:	48 83 c3 08          	add    $0x8,%rbx
    1d42:	48 03 74 24 b8       	add    -0x48(%rsp),%rsi
    1d47:	44 03 44 24 c8       	add    -0x38(%rsp),%r8d
    1d4c:	48 39 5c 24 c0       	cmp    %rbx,-0x40(%rsp)
    1d51:	0f 85 11 ff ff ff    	jne    1c68 <matrix_vector_code_1D+0x138>
    1d57:	48 83 44 24 d8 08    	addq   $0x8,-0x28(%rsp)
    1d5d:	8b 5c 24 ec          	mov    -0x14(%rsp),%ebx
    1d61:	49 89 ec             	mov    %rbp,%r12
    1d64:	01 5c 24 e8          	add    %ebx,-0x18(%rsp)
    1d68:	48 8b 44 24 d8       	mov    -0x28(%rsp),%rax
    1d6d:	48 3b 44 24 f0       	cmp    -0x10(%rsp),%rax
    1d72:	0f 85 98 fe ff ff    	jne    1c10 <matrix_vector_code_1D+0xe0>
    1d78:	48 83 c4 10          	add    $0x10,%rsp
    1d7c:	5b                   	pop    %rbx
    1d7d:	5d                   	pop    %rbp
    1d7e:	41 5c                	pop    %r12
    1d80:	41 5d                	pop    %r13
    1d82:	41 5e                	pop    %r14
    1d84:	41 5f                	pop    %r15
    1d86:	c3                   	retq   
    1d87:	66 0f 1f 84 00 00 00 	nopw   0x0(%rax,%rax,1)
    1d8e:	00 00 
    1d90:	48 8b 44 24 90       	mov    -0x70(%rsp),%rax
    1d95:	4c 8b 74 24 98       	mov    -0x68(%rsp),%r14
    1d9a:	4c 8b 64 24 e0       	mov    -0x20(%rsp),%r12
    1d9f:	4d 8d 4c 02 f8       	lea    -0x8(%r10,%rax,1),%r9
    1da4:	31 c0                	xor    %eax,%eax
    1da6:	66 2e 0f 1f 84 00 00 	nopw   %cs:0x0(%rax,%rax,1)
    1dad:	00 00 00 
    1db0:	f2 41 0f 10 44 c1 f8 	movsd  -0x8(%r9,%rax,8),%xmm0
    1db7:	f2 0f 59 04 c6       	mulsd  (%rsi,%rax,8),%xmm0
    1dbc:	48 89 c2             	mov    %rax,%rdx
    1dbf:	f2 41 0f 58 44 c6 f8 	addsd  -0x8(%r14,%rax,8),%xmm0
    1dc6:	f2 41 0f 11 44 c6 f8 	movsd  %xmm0,-0x8(%r14,%rax,8)
    1dcd:	48 83 c0 01          	add    $0x1,%rax
    1dd1:	4c 39 e2             	cmp    %r12,%rdx
    1dd4:	75 da                	jne    1db0 <matrix_vector_code_1D+0x280>
    1dd6:	4c 89 74 24 98       	mov    %r14,-0x68(%rsp)
    1ddb:	e9 5e ff ff ff       	jmpq   1d3e <matrix_vector_code_1D+0x20e>

0000000000001de0 <_ZGVbN4vvvvvvvvvvvv_matrix_vector_code_1D>:
    1de0:	f3 0f 1e fa          	endbr64 
    1de4:	41 57                	push   %r15
    1de6:	41 56                	push   %r14
    1de8:	41 55                	push   %r13
    1dea:	41 54                	push   %r12
    1dec:	55                   	push   %rbp
    1ded:	53                   	push   %rbx
    1dee:	48 81 ec e8 01 00 00 	sub    $0x1e8,%rsp
    1df5:	64 48 8b 04 25 28 00 	mov    %fs:0x28,%rax
    1dfc:	00 00 
    1dfe:	48 89 84 24 d8 01 00 	mov    %rax,0x1d8(%rsp)
    1e05:	00 
    1e06:	31 c0                	xor    %eax,%eax
    1e08:	0f 29 9c 24 40 01 00 	movaps %xmm3,0x140(%rsp)
    1e0f:	00 
    1e10:	66 0f 6f 9c 24 20 02 	movdqa 0x220(%rsp),%xmm3
    1e17:	00 00 
    1e19:	48 8d 84 24 10 01 00 	lea    0x110(%rsp),%rax
    1e20:	00 
    1e21:	0f 29 a4 24 50 01 00 	movaps %xmm4,0x150(%rsp)
    1e28:	00 
    1e29:	66 0f 6f a4 24 30 02 	movdqa 0x230(%rsp),%xmm4
    1e30:	00 00 
    1e32:	0f 29 ac 24 60 01 00 	movaps %xmm5,0x160(%rsp)
    1e39:	00 
    1e3a:	66 0f 6f ac 24 50 02 	movdqa 0x250(%rsp),%xmm5
    1e41:	00 00 
    1e43:	0f 29 b4 24 00 01 00 	movaps %xmm6,0x100(%rsp)
    1e4a:	00 
    1e4b:	66 0f 6f b4 24 60 02 	movdqa 0x260(%rsp),%xmm6
    1e52:	00 00 
    1e54:	0f 29 bc 24 70 01 00 	movaps %xmm7,0x170(%rsp)
    1e5b:	00 
    1e5c:	66 0f 6f bc 24 70 02 	movdqa 0x270(%rsp),%xmm7
    1e63:	00 00 
    1e65:	0f 29 9c 24 80 01 00 	movaps %xmm3,0x180(%rsp)
    1e6c:	00 
    1e6d:	66 0f 6f 9c 24 90 02 	movdqa 0x290(%rsp),%xmm3
    1e74:	00 00 
    1e76:	0f 29 a4 24 10 01 00 	movaps %xmm4,0x110(%rsp)
    1e7d:	00 
    1e7e:	66 0f 6f a4 24 a0 02 	movdqa 0x2a0(%rsp),%xmm4
    1e85:	00 00 
    1e87:	48 c7 84 24 88 00 00 	movq   $0x0,0x88(%rsp)
    1e8e:	00 00 00 00 00 
    1e93:	0f 29 84 24 e0 00 00 	movaps %xmm0,0xe0(%rsp)
    1e9a:	00 
    1e9b:	0f 29 8c 24 f0 00 00 	movaps %xmm1,0xf0(%rsp)
    1ea2:	00 
    1ea3:	0f 29 94 24 30 01 00 	movaps %xmm2,0x130(%rsp)
    1eaa:	00 
    1eab:	0f 29 ac 24 90 01 00 	movaps %xmm5,0x190(%rsp)
    1eb2:	00 
    1eb3:	0f 29 b4 24 a0 01 00 	movaps %xmm6,0x1a0(%rsp)
    1eba:	00 
    1ebb:	0f 29 bc 24 20 01 00 	movaps %xmm7,0x120(%rsp)
    1ec2:	00 
    1ec3:	0f 29 9c 24 b0 01 00 	movaps %xmm3,0x1b0(%rsp)
    1eca:	00 
    1ecb:	0f 29 a4 24 c0 01 00 	movaps %xmm4,0x1c0(%rsp)
    1ed2:	00 
    1ed3:	48 89 84 24 d8 00 00 	mov    %rax,0xd8(%rsp)
    1eda:	00 
    1edb:	48 8d 84 24 50 01 00 	lea    0x150(%rsp),%rax
    1ee2:	00 
    1ee3:	48 89 84 24 d0 00 00 	mov    %rax,0xd0(%rsp)
    1eea:	00 
    1eeb:	48 8d 84 24 b0 01 00 	lea    0x1b0(%rsp),%rax
    1ef2:	00 
    1ef3:	48 89 84 24 a0 00 00 	mov    %rax,0xa0(%rsp)
    1efa:	00 
    1efb:	48 8d 84 24 70 01 00 	lea    0x170(%rsp),%rax
    1f02:	00 
    1f03:	48 89 84 24 a8 00 00 	mov    %rax,0xa8(%rsp)
    1f0a:	00 
    1f0b:	48 8d 84 24 00 01 00 	lea    0x100(%rsp),%rax
    1f12:	00 
    1f13:	48 89 84 24 c0 00 00 	mov    %rax,0xc0(%rsp)
    1f1a:	00 
    1f1b:	48 8d 84 24 20 01 00 	lea    0x120(%rsp),%rax
    1f22:	00 
    1f23:	48 89 84 24 90 00 00 	mov    %rax,0x90(%rsp)
    1f2a:	00 
    1f2b:	48 8d 84 24 30 01 00 	lea    0x130(%rsp),%rax
    1f32:	00 
    1f33:	48 89 84 24 b0 00 00 	mov    %rax,0xb0(%rsp)
    1f3a:	00 
    1f3b:	48 8d 84 24 90 01 00 	lea    0x190(%rsp),%rax
    1f42:	00 
    1f43:	48 89 84 24 c8 00 00 	mov    %rax,0xc8(%rsp)
    1f4a:	00 
    1f4b:	48 8d 84 24 e0 00 00 	lea    0xe0(%rsp),%rax
    1f52:	00 
    1f53:	48 89 84 24 98 00 00 	mov    %rax,0x98(%rsp)
    1f5a:	00 
    1f5b:	48 8d 84 24 f0 00 00 	lea    0xf0(%rsp),%rax
    1f62:	00 
    1f63:	48 89 84 24 b8 00 00 	mov    %rax,0xb8(%rsp)
    1f6a:	00 
    1f6b:	48 8b 84 24 88 00 00 	mov    0x88(%rsp),%rax
    1f72:	00 
    1f73:	48 8b 9c 24 d8 00 00 	mov    0xd8(%rsp),%rbx
    1f7a:	00 
    1f7b:	8b 34 03             	mov    (%rbx,%rax,1),%esi
    1f7e:	48 8b 9c 24 d0 00 00 	mov    0xd0(%rsp),%rbx
    1f85:	00 
    1f86:	4c 8b 04 43          	mov    (%rbx,%rax,2),%r8
    1f8a:	48 8b 9c 24 a0 00 00 	mov    0xa0(%rsp),%rbx
    1f91:	00 
    1f92:	4c 8b 1c 43          	mov    (%rbx,%rax,2),%r11
    1f96:	48 8b 9c 24 a8 00 00 	mov    0xa8(%rsp),%rbx
    1f9d:	00 
    1f9e:	4c 8b 24 43          	mov    (%rbx,%rax,2),%r12
    1fa2:	48 8b 9c 24 c0 00 00 	mov    0xc0(%rsp),%rbx
    1fa9:	00 
    1faa:	4c 89 5c 24 68       	mov    %r11,0x68(%rsp)
    1faf:	44 8b 34 03          	mov    (%rbx,%rax,1),%r14d
    1fb3:	48 8b 9c 24 90 00 00 	mov    0x90(%rsp),%rbx
    1fba:	00 
    1fbb:	8b 0c 03             	mov    (%rbx,%rax,1),%ecx
    1fbe:	48 8b 9c 24 b0 00 00 	mov    0xb0(%rsp),%rbx
    1fc5:	00 
    1fc6:	44 89 74 24 40       	mov    %r14d,0x40(%rsp)
    1fcb:	48 8b 1c 43          	mov    (%rbx,%rax,2),%rbx
    1fcf:	48 89 5c 24 60       	mov    %rbx,0x60(%rsp)
    1fd4:	48 8b 9c 24 c8 00 00 	mov    0xc8(%rsp),%rbx
    1fdb:	00 
    1fdc:	48 8b 3c 43          	mov    (%rbx,%rax,2),%rdi
    1fe0:	48 8b 9c 24 98 00 00 	mov    0x98(%rsp),%rbx
    1fe7:	00 
    1fe8:	48 63 14 03          	movslq (%rbx,%rax,1),%rdx
    1fec:	48 8b 9c 24 b8 00 00 	mov    0xb8(%rsp),%rbx
    1ff3:	00 
    1ff4:	8b 1c 03             	mov    (%rbx,%rax,1),%ebx
    1ff7:	89 5c 24 48          	mov    %ebx,0x48(%rsp)
    1ffb:	85 f6                	test   %esi,%esi
    1ffd:	0f 8e 0d 02 00 00    	jle    2210 <_ZGVbN4vvvvvvvvvvvv_matrix_vector_code_1D+0x430>
    2003:	89 d8                	mov    %ebx,%eax
    2005:	0f af c2             	imul   %edx,%eax
    2008:	48 c1 e2 02          	shl    $0x2,%rdx
    200c:	48 89 54 24 20       	mov    %rdx,0x20(%rsp)
    2011:	85 c9                	test   %ecx,%ecx
    2013:	0f 8e f7 01 00 00    	jle    2210 <_ZGVbN4vvvvvvvvvvvv_matrix_vector_code_1D+0x430>
    2019:	85 db                	test   %ebx,%ebx
    201b:	0f 8e ef 01 00 00    	jle    2210 <_ZGVbN4vvvvvvvvvvvv_matrix_vector_code_1D+0x430>
    2021:	44 89 f2             	mov    %r14d,%edx
    2024:	48 89 7c 24 50       	mov    %rdi,0x50(%rsp)
    2029:	0f af d1             	imul   %ecx,%edx
    202c:	c7 44 24 70 00 00 00 	movl   $0x0,0x70(%rsp)
    2033:	00 
    2034:	89 54 24 74          	mov    %edx,0x74(%rsp)
    2038:	8d 56 ff             	lea    -0x1(%rsi),%edx
    203b:	48 8d 74 d7 08       	lea    0x8(%rdi,%rdx,8),%rsi
    2040:	49 63 d6             	movslq %r14d,%rdx
    2043:	48 89 74 24 78       	mov    %rsi,0x78(%rsp)
    2048:	48 8d 34 d5 00 00 00 	lea    0x0(,%rdx,8),%rsi
    204f:	00 
    2050:	8d 51 ff             	lea    -0x1(%rcx),%edx
    2053:	48 89 74 24 30       	mov    %rsi,0x30(%rsp)
    2058:	49 8d 74 d3 08       	lea    0x8(%r11,%rdx,8),%rsi
    205d:	48 89 74 24 38       	mov    %rsi,0x38(%rsp)
    2062:	89 de                	mov    %ebx,%esi
    2064:	d1 eb                	shr    %ebx
    2066:	89 da                	mov    %ebx,%edx
    2068:	89 f3                	mov    %esi,%ebx
    206a:	83 e3 fe             	and    $0xfffffffe,%ebx
    206d:	48 c1 e2 04          	shl    $0x4,%rdx
    2071:	44 8d 1c 18          	lea    (%rax,%rbx,1),%r11d
    2075:	89 5c 24 4c          	mov    %ebx,0x4c(%rsp)
    2079:	44 8d 7b ff          	lea    -0x1(%rbx),%r15d
    207d:	89 f3                	mov    %esi,%ebx
    207f:	83 eb 01             	sub    $0x1,%ebx
    2082:	48 98                	cltq   
    2084:	49 89 d5             	mov    %rdx,%r13
    2087:	48 89 84 24 80 00 00 	mov    %rax,0x80(%rsp)
    208e:	00 
    208f:	89 d8                	mov    %ebx,%eax
    2091:	89 5c 24 44          	mov    %ebx,0x44(%rsp)
    2095:	48 89 44 24 58       	mov    %rax,0x58(%rsp)
    209a:	66 0f 1f 44 00 00    	nopw   0x0(%rax,%rax,1)
    20a0:	48 63 44 24 70       	movslq 0x70(%rsp),%rax
    20a5:	48 8b 5c 24 20       	mov    0x20(%rsp),%rbx
    20aa:	49 89 c1             	mov    %rax,%r9
    20ad:	48 03 84 24 80 00 00 	add    0x80(%rsp),%rax
    20b4:	00 
    20b5:	49 8d 34 c4          	lea    (%r12,%rax,8),%rsi
    20b9:	48 8b 44 24 50       	mov    0x50(%rsp),%rax
    20be:	48 8b 00             	mov    (%rax),%rax
    20c1:	48 63 04 18          	movslq (%rax,%rbx,1),%rax
    20c5:	48 8b 5c 24 60       	mov    0x60(%rsp),%rbx
    20ca:	48 89 c2             	mov    %rax,%rdx
    20cd:	48 8d 7c c3 08       	lea    0x8(%rbx,%rax,8),%rdi
    20d2:	48 8d 2c c3          	lea    (%rbx,%rax,8),%rbp
    20d6:	44 01 fa             	add    %r15d,%edx
    20d9:	48 89 7c 24 28       	mov    %rdi,0x28(%rsp)
    20de:	48 8d 4c c3 f8       	lea    -0x8(%rbx,%rax,8),%rcx
    20e3:	48 63 d2             	movslq %edx,%rdx
    20e6:	48 89 6c 24 10       	mov    %rbp,0x10(%rsp)
    20eb:	4c 89 ed             	mov    %r13,%rbp
    20ee:	48 8d 3c d3          	lea    (%rbx,%rdx,8),%rdi
    20f2:	48 8b 5c 24 68       	mov    0x68(%rsp),%rbx
    20f7:	66 0f 1f 84 00 00 00 	nopw   0x0(%rax,%rax,1)
    20fe:	00 00 
    2100:	48 8b 54 24 20       	mov    0x20(%rsp),%rdx
    2105:	48 8b 03             	mov    (%rbx),%rax
    2108:	4c 8b 74 24 28       	mov    0x28(%rsp),%r14
    210d:	48 63 04 10          	movslq (%rax,%rdx,1),%rax
    2111:	48 89 c2             	mov    %rax,%rdx
    2114:	4d 8d 54 c0 f8       	lea    -0x8(%r8,%rax,8),%r10
    2119:	48 8d 04 c5 08 00 00 	lea    0x8(,%rax,8),%rax
    2120:	00 
    2121:	48 89 44 24 08       	mov    %rax,0x8(%rsp)
    2126:	48 8d 46 10          	lea    0x10(%rsi),%rax
    212a:	48 39 c1             	cmp    %rax,%rcx
    212d:	41 0f 93 c5          	setae  %r13b
    2131:	4c 39 f6             	cmp    %r14,%rsi
    2134:	0f 93 c0             	setae  %al
    2137:	44 09 e8             	or     %r13d,%eax
    213a:	83 7c 24 44 01       	cmpl   $0x1,0x44(%rsp)
    213f:	41 0f 97 c5          	seta   %r13b
    2143:	44 84 e8             	test   %r13b,%al
    2146:	0f 84 04 01 00 00    	je     2250 <_ZGVbN4vvvvvvvvvvvv_matrix_vector_code_1D+0x470>
    214c:	48 8b 44 24 08       	mov    0x8(%rsp),%rax
    2151:	4c 01 c0             	add    %r8,%rax
    2154:	48 39 c1             	cmp    %rax,%rcx
    2157:	0f 93 44 24 1f       	setae  0x1f(%rsp)
    215c:	4d 39 f2             	cmp    %r14,%r10
    215f:	44 0f b6 74 24 1f    	movzbl 0x1f(%rsp),%r14d
    2165:	41 0f 93 c5          	setae  %r13b
    2169:	31 c0                	xor    %eax,%eax
    216b:	45 08 ee             	or     %r13b,%r14b
    216e:	4c 8b 74 24 10       	mov    0x10(%rsp),%r14
    2173:	0f 84 d7 00 00 00    	je     2250 <_ZGVbN4vvvvvvvvvvvv_matrix_vector_code_1D+0x470>
    2179:	0f 1f 80 00 00 00 00 	nopl   0x0(%rax)
    2180:	66 0f 10 04 06       	movupd (%rsi,%rax,1),%xmm0
    2185:	66 41 0f 10 0c 02    	movupd (%r10,%rax,1),%xmm1
    218b:	66 0f 10 14 01       	movupd (%rcx,%rax,1),%xmm2
    2190:	66 0f 59 c1          	mulpd  %xmm1,%xmm0
    2194:	66 0f 58 c2          	addpd  %xmm2,%xmm0
    2198:	0f 11 04 01          	movups %xmm0,(%rcx,%rax,1)
    219c:	48 83 c0 10          	add    $0x10,%rax
    21a0:	48 39 e8             	cmp    %rbp,%rax
    21a3:	75 db                	jne    2180 <_ZGVbN4vvvvvvvvvvvv_matrix_vector_code_1D+0x3a0>
    21a5:	4c 89 74 24 10       	mov    %r14,0x10(%rsp)
    21aa:	44 8b 74 24 4c       	mov    0x4c(%rsp),%r14d
    21af:	44 39 74 24 48       	cmp    %r14d,0x48(%rsp)
    21b4:	74 20                	je     21d6 <_ZGVbN4vvvvvvvvvvvv_matrix_vector_code_1D+0x3f6>
    21b6:	43 8d 04 19          	lea    (%r9,%r11,1),%eax
    21ba:	44 01 fa             	add    %r15d,%edx
    21bd:	48 98                	cltq   
    21bf:	48 63 d2             	movslq %edx,%rdx
    21c2:	f2 41 0f 10 04 c4    	movsd  (%r12,%rax,8),%xmm0
    21c8:	f2 41 0f 59 04 d0    	mulsd  (%r8,%rdx,8),%xmm0
    21ce:	f2 0f 58 07          	addsd  (%rdi),%xmm0
    21d2:	f2 0f 11 07          	movsd  %xmm0,(%rdi)
    21d6:	48 83 c3 08          	add    $0x8,%rbx
    21da:	48 03 74 24 30       	add    0x30(%rsp),%rsi
    21df:	44 03 4c 24 40       	add    0x40(%rsp),%r9d
    21e4:	48 39 5c 24 38       	cmp    %rbx,0x38(%rsp)
    21e9:	0f 85 11 ff ff ff    	jne    2100 <_ZGVbN4vvvvvvvvvvvv_matrix_vector_code_1D+0x320>
    21ef:	48 83 44 24 50 08    	addq   $0x8,0x50(%rsp)
    21f5:	8b 5c 24 74          	mov    0x74(%rsp),%ebx
    21f9:	49 89 ed             	mov    %rbp,%r13
    21fc:	01 5c 24 70          	add    %ebx,0x70(%rsp)
    2200:	48 8b 44 24 50       	mov    0x50(%rsp),%rax
    2205:	48 3b 44 24 78       	cmp    0x78(%rsp),%rax
    220a:	0f 85 90 fe ff ff    	jne    20a0 <_ZGVbN4vvvvvvvvvvvv_matrix_vector_code_1D+0x2c0>
    2210:	48 83 84 24 88 00 00 	addq   $0x4,0x88(%rsp)
    2217:	00 04 
    2219:	48 8b 84 24 88 00 00 	mov    0x88(%rsp),%rax
    2220:	00 
    2221:	48 83 f8 10          	cmp    $0x10,%rax
    2225:	0f 85 40 fd ff ff    	jne    1f6b <_ZGVbN4vvvvvvvvvvvv_matrix_vector_code_1D+0x18b>
    222b:	48 8b 84 24 d8 01 00 	mov    0x1d8(%rsp),%rax
    2232:	00 
    2233:	64 48 33 04 25 28 00 	xor    %fs:0x28,%rax
    223a:	00 00 
    223c:	75 62                	jne    22a0 <_ZGVbN4vvvvvvvvvvvv_matrix_vector_code_1D+0x4c0>
    223e:	48 81 c4 e8 01 00 00 	add    $0x1e8,%rsp
    2245:	5b                   	pop    %rbx
    2246:	5d                   	pop    %rbp
    2247:	41 5c                	pop    %r12
    2249:	41 5d                	pop    %r13
    224b:	41 5e                	pop    %r14
    224d:	41 5f                	pop    %r15
    224f:	c3                   	retq   
    2250:	48 8b 44 24 08       	mov    0x8(%rsp),%rax
    2255:	4c 8b 74 24 10       	mov    0x10(%rsp),%r14
    225a:	4c 8b 6c 24 58       	mov    0x58(%rsp),%r13
    225f:	4d 8d 54 00 f8       	lea    -0x8(%r8,%rax,1),%r10
    2264:	31 c0                	xor    %eax,%eax
    2266:	66 2e 0f 1f 84 00 00 	nopw   %cs:0x0(%rax,%rax,1)
    226d:	00 00 00 
    2270:	f2 41 0f 10 44 c2 f8 	movsd  -0x8(%r10,%rax,8),%xmm0
    2277:	f2 0f 59 04 c6       	mulsd  (%rsi,%rax,8),%xmm0
    227c:	48 89 c2             	mov    %rax,%rdx
    227f:	f2 41 0f 58 44 c6 f8 	addsd  -0x8(%r14,%rax,8),%xmm0
    2286:	f2 41 0f 11 44 c6 f8 	movsd  %xmm0,-0x8(%r14,%rax,8)
    228d:	48 83 c0 01          	add    $0x1,%rax
    2291:	4c 39 ea             	cmp    %r13,%rdx
    2294:	75 da                	jne    2270 <_ZGVbN4vvvvvvvvvvvv_matrix_vector_code_1D+0x490>
    2296:	4c 89 74 24 10       	mov    %r14,0x10(%rsp)
    229b:	e9 36 ff ff ff       	jmpq   21d6 <_ZGVbN4vvvvvvvvvvvv_matrix_vector_code_1D+0x3f6>
    22a0:	e8 8b ee ff ff       	callq  1130 <__stack_chk_fail@plt>
    22a5:	66 66 2e 0f 1f 84 00 	data16 nopw %cs:0x0(%rax,%rax,1)
    22ac:	00 00 00 00 

00000000000022b0 <_ZGVbM4vvvvvvvvvvvv_matrix_vector_code_1D>:
    22b0:	f3 0f 1e fa          	endbr64 
    22b4:	41 57                	push   %r15
    22b6:	41 56                	push   %r14
    22b8:	41 55                	push   %r13
    22ba:	41 54                	push   %r12
    22bc:	55                   	push   %rbp
    22bd:	53                   	push   %rbx
    22be:	48 81 ec a8 01 00 00 	sub    $0x1a8,%rsp
    22c5:	64 48 8b 04 25 28 00 	mov    %fs:0x28,%rax
    22cc:	00 00 
    22ce:	48 89 84 24 98 01 00 	mov    %rax,0x198(%rsp)
    22d5:	00 
    22d6:	31 c0                	xor    %eax,%eax
    22d8:	0f 29 9c 24 00 01 00 	movaps %xmm3,0x100(%rsp)
    22df:	00 
    22e0:	66 0f 6f 9c 24 e0 01 	movdqa 0x1e0(%rsp),%xmm3
    22e7:	00 00 
    22e9:	48 8d 84 24 e0 00 00 	lea    0xe0(%rsp),%rax
    22f0:	00 
    22f1:	0f 29 a4 24 10 01 00 	movaps %xmm4,0x110(%rsp)
    22f8:	00 
    22f9:	66 0f 6f a4 24 f0 01 	movdqa 0x1f0(%rsp),%xmm4
    2300:	00 00 
    2302:	0f 29 ac 24 20 01 00 	movaps %xmm5,0x120(%rsp)
    2309:	00 
    230a:	66 0f 6f ac 24 10 02 	movdqa 0x210(%rsp),%xmm5
    2311:	00 00 
    2313:	0f 29 b4 24 b0 00 00 	movaps %xmm6,0xb0(%rsp)
    231a:	00 
    231b:	66 0f 6f b4 24 20 02 	movdqa 0x220(%rsp),%xmm6
    2322:	00 00 
    2324:	0f 29 bc 24 30 01 00 	movaps %xmm7,0x130(%rsp)
    232b:	00 
    232c:	66 0f 6f bc 24 30 02 	movdqa 0x230(%rsp),%xmm7
    2333:	00 00 
    2335:	0f 29 9c 24 40 01 00 	movaps %xmm3,0x140(%rsp)
    233c:	00 
    233d:	66 0f 6f 9c 24 50 02 	movdqa 0x250(%rsp),%xmm3
    2344:	00 00 
    2346:	0f 29 a4 24 c0 00 00 	movaps %xmm4,0xc0(%rsp)
    234d:	00 
    234e:	66 0f 6f a4 24 60 02 	movdqa 0x260(%rsp),%xmm4
    2355:	00 00 
    2357:	0f 29 ac 24 50 01 00 	movaps %xmm5,0x150(%rsp)
    235e:	00 
    235f:	66 0f 6f ac 24 70 02 	movdqa 0x270(%rsp),%xmm5
    2366:	00 00 
    2368:	0f 29 84 24 90 00 00 	movaps %xmm0,0x90(%rsp)
    236f:	00 
    2370:	0f 29 8c 24 a0 00 00 	movaps %xmm1,0xa0(%rsp)
    2377:	00 
    2378:	0f 29 94 24 f0 00 00 	movaps %xmm2,0xf0(%rsp)
    237f:	00 
    2380:	0f 29 b4 24 60 01 00 	movaps %xmm6,0x160(%rsp)
    2387:	00 
    2388:	0f 29 bc 24 d0 00 00 	movaps %xmm7,0xd0(%rsp)
    238f:	00 
    2390:	0f 29 9c 24 70 01 00 	movaps %xmm3,0x170(%rsp)
    2397:	00 
    2398:	0f 29 a4 24 80 01 00 	movaps %xmm4,0x180(%rsp)
    239f:	00 
    23a0:	0f 29 ac 24 e0 00 00 	movaps %xmm5,0xe0(%rsp)
    23a7:	00 
    23a8:	48 c7 84 24 80 00 00 	movq   $0x0,0x80(%rsp)
    23af:	00 00 00 00 00 
    23b4:	48 89 84 24 88 00 00 	mov    %rax,0x88(%rsp)
    23bb:	00 
    23bc:	48 8b 9c 24 88 00 00 	mov    0x88(%rsp),%rbx
    23c3:	00 
    23c4:	48 8b 84 24 80 00 00 	mov    0x80(%rsp),%rax
    23cb:	00 
    23cc:	8b 14 03             	mov    (%rbx,%rax,1),%edx
    23cf:	85 d2                	test   %edx,%edx
    23d1:	0f 84 69 02 00 00    	je     2640 <_ZGVbM4vvvvvvvvvvvv_matrix_vector_code_1D+0x390>
    23d7:	8b b4 04 c0 00 00 00 	mov    0xc0(%rsp,%rax,1),%esi
    23de:	85 f6                	test   %esi,%esi
    23e0:	0f 8e 5a 02 00 00    	jle    2640 <_ZGVbM4vvvvvvvvvvvv_matrix_vector_code_1D+0x390>
    23e6:	48 8b 9c 44 f0 00 00 	mov    0xf0(%rsp,%rax,2),%rbx
    23ed:	00 
    23ee:	48 63 94 04 90 00 00 	movslq 0x90(%rsp,%rax,1),%rdx
    23f5:	00 
    23f6:	4c 8b bc 44 70 01 00 	mov    0x170(%rsp,%rax,2),%r15
    23fd:	00 
    23fe:	44 8b b4 04 b0 00 00 	mov    0xb0(%rsp,%rax,1),%r14d
    2405:	00 
    2406:	48 89 5c 24 68       	mov    %rbx,0x68(%rsp)
    240b:	8b 9c 04 a0 00 00 00 	mov    0xa0(%rsp,%rax,1),%ebx
    2412:	4c 8b 84 44 10 01 00 	mov    0x110(%rsp,%rax,2),%r8
    2419:	00 
    241a:	4c 8b 9c 44 30 01 00 	mov    0x130(%rsp,%rax,2),%r11
    2421:	00 
    2422:	4c 89 7c 24 70       	mov    %r15,0x70(%rsp)
    2427:	8b 8c 04 d0 00 00 00 	mov    0xd0(%rsp,%rax,1),%ecx
    242e:	48 8b bc 44 50 01 00 	mov    0x150(%rsp,%rax,2),%rdi
    2435:	00 
    2436:	89 d8                	mov    %ebx,%eax
    2438:	44 89 74 24 38       	mov    %r14d,0x38(%rsp)
    243d:	0f af c2             	imul   %edx,%eax
    2440:	48 c1 e2 02          	shl    $0x2,%rdx
    2444:	89 5c 24 40          	mov    %ebx,0x40(%rsp)
    2448:	48 89 54 24 18       	mov    %rdx,0x18(%rsp)
    244d:	85 c9                	test   %ecx,%ecx
    244f:	0f 8e eb 01 00 00    	jle    2640 <_ZGVbM4vvvvvvvvvvvv_matrix_vector_code_1D+0x390>
    2455:	85 db                	test   %ebx,%ebx
    2457:	0f 8e e3 01 00 00    	jle    2640 <_ZGVbM4vvvvvvvvvvvv_matrix_vector_code_1D+0x390>
    245d:	44 89 f2             	mov    %r14d,%edx
    2460:	48 89 7c 24 48       	mov    %rdi,0x48(%rsp)
    2465:	0f af d1             	imul   %ecx,%edx
    2468:	c7 44 24 58 00 00 00 	movl   $0x0,0x58(%rsp)
    246f:	00 
    2470:	89 54 24 5c          	mov    %edx,0x5c(%rsp)
    2474:	8d 56 ff             	lea    -0x1(%rsi),%edx
    2477:	48 8d 74 d7 08       	lea    0x8(%rdi,%rdx,8),%rsi
    247c:	49 63 d6             	movslq %r14d,%rdx
    247f:	48 89 74 24 60       	mov    %rsi,0x60(%rsp)
    2484:	48 8d 34 d5 00 00 00 	lea    0x0(,%rdx,8),%rsi
    248b:	00 
    248c:	8d 51 ff             	lea    -0x1(%rcx),%edx
    248f:	48 89 74 24 28       	mov    %rsi,0x28(%rsp)
    2494:	49 8d 74 d7 08       	lea    0x8(%r15,%rdx,8),%rsi
    2499:	48 89 74 24 30       	mov    %rsi,0x30(%rsp)
    249e:	89 de                	mov    %ebx,%esi
    24a0:	d1 eb                	shr    %ebx
    24a2:	89 da                	mov    %ebx,%edx
    24a4:	89 f3                	mov    %esi,%ebx
    24a6:	83 e3 fe             	and    $0xfffffffe,%ebx
    24a9:	48 c1 e2 04          	shl    $0x4,%rdx
    24ad:	44 8d 2c 18          	lea    (%rax,%rbx,1),%r13d
    24b1:	89 5c 24 44          	mov    %ebx,0x44(%rsp)
    24b5:	44 8d 7b ff          	lea    -0x1(%rbx),%r15d
    24b9:	89 f3                	mov    %esi,%ebx
    24bb:	83 eb 01             	sub    $0x1,%ebx
    24be:	48 98                	cltq   
    24c0:	49 89 d4             	mov    %rdx,%r12
    24c3:	48 89 44 24 78       	mov    %rax,0x78(%rsp)
    24c8:	89 d8                	mov    %ebx,%eax
    24ca:	89 5c 24 3c          	mov    %ebx,0x3c(%rsp)
    24ce:	48 89 44 24 50       	mov    %rax,0x50(%rsp)
    24d3:	0f 1f 44 00 00       	nopl   0x0(%rax,%rax,1)
    24d8:	48 63 44 24 58       	movslq 0x58(%rsp),%rax
    24dd:	48 8b 5c 24 18       	mov    0x18(%rsp),%rbx
    24e2:	49 89 c1             	mov    %rax,%r9
    24e5:	48 03 44 24 78       	add    0x78(%rsp),%rax
    24ea:	49 8d 34 c3          	lea    (%r11,%rax,8),%rsi
    24ee:	48 8b 44 24 48       	mov    0x48(%rsp),%rax
    24f3:	48 8b 00             	mov    (%rax),%rax
    24f6:	48 63 04 18          	movslq (%rax,%rbx,1),%rax
    24fa:	48 8b 5c 24 68       	mov    0x68(%rsp),%rbx
    24ff:	48 89 c2             	mov    %rax,%rdx
    2502:	48 8d 7c c3 08       	lea    0x8(%rbx,%rax,8),%rdi
    2507:	48 8d 2c c3          	lea    (%rbx,%rax,8),%rbp
    250b:	44 01 fa             	add    %r15d,%edx
    250e:	48 89 7c 24 20       	mov    %rdi,0x20(%rsp)
    2513:	48 8d 4c c3 f8       	lea    -0x8(%rbx,%rax,8),%rcx
    2518:	48 63 d2             	movslq %edx,%rdx
    251b:	48 89 6c 24 08       	mov    %rbp,0x8(%rsp)
    2520:	4c 89 e5             	mov    %r12,%rbp
    2523:	48 8d 3c d3          	lea    (%rbx,%rdx,8),%rdi
    2527:	48 8b 5c 24 70       	mov    0x70(%rsp),%rbx
    252c:	0f 1f 40 00          	nopl   0x0(%rax)
    2530:	48 8b 54 24 18       	mov    0x18(%rsp),%rdx
    2535:	48 8b 03             	mov    (%rbx),%rax
    2538:	4c 8b 74 24 20       	mov    0x20(%rsp),%r14
    253d:	48 63 04 10          	movslq (%rax,%rdx,1),%rax
    2541:	48 89 c2             	mov    %rax,%rdx
    2544:	4d 8d 54 c0 f8       	lea    -0x8(%r8,%rax,8),%r10
    2549:	48 8d 04 c5 08 00 00 	lea    0x8(,%rax,8),%rax
    2550:	00 
    2551:	48 89 04 24          	mov    %rax,(%rsp)
    2555:	48 8d 46 10          	lea    0x10(%rsi),%rax
    2559:	48 39 c1             	cmp    %rax,%rcx
    255c:	41 0f 93 c4          	setae  %r12b
    2560:	4c 39 f6             	cmp    %r14,%rsi
    2563:	0f 93 c0             	setae  %al
    2566:	44 09 e0             	or     %r12d,%eax
    2569:	83 7c 24 3c 01       	cmpl   $0x1,0x3c(%rsp)
    256e:	41 0f 97 c4          	seta   %r12b
    2572:	44 84 e0             	test   %r12b,%al
    2575:	0f 84 05 01 00 00    	je     2680 <_ZGVbM4vvvvvvvvvvvv_matrix_vector_code_1D+0x3d0>
    257b:	48 8b 04 24          	mov    (%rsp),%rax
    257f:	4c 01 c0             	add    %r8,%rax
    2582:	48 39 c1             	cmp    %rax,%rcx
    2585:	0f 93 44 24 17       	setae  0x17(%rsp)
    258a:	4d 39 f2             	cmp    %r14,%r10
    258d:	44 0f b6 74 24 17    	movzbl 0x17(%rsp),%r14d
    2593:	41 0f 93 c4          	setae  %r12b
    2597:	31 c0                	xor    %eax,%eax
    2599:	45 08 e6             	or     %r12b,%r14b
    259c:	4c 8b 74 24 08       	mov    0x8(%rsp),%r14
    25a1:	0f 84 d9 00 00 00    	je     2680 <_ZGVbM4vvvvvvvvvvvv_matrix_vector_code_1D+0x3d0>
    25a7:	66 0f 1f 84 00 00 00 	nopw   0x0(%rax,%rax,1)
    25ae:	00 00 
    25b0:	66 0f 10 04 06       	movupd (%rsi,%rax,1),%xmm0
    25b5:	66 41 0f 10 0c 02    	movupd (%r10,%rax,1),%xmm1
    25bb:	66 0f 10 14 01       	movupd (%rcx,%rax,1),%xmm2
    25c0:	66 0f 59 c1          	mulpd  %xmm1,%xmm0
    25c4:	66 0f 58 c2          	addpd  %xmm2,%xmm0
    25c8:	0f 11 04 01          	movups %xmm0,(%rcx,%rax,1)
    25cc:	48 83 c0 10          	add    $0x10,%rax
    25d0:	48 39 e8             	cmp    %rbp,%rax
    25d3:	75 db                	jne    25b0 <_ZGVbM4vvvvvvvvvvvv_matrix_vector_code_1D+0x300>
    25d5:	4c 89 74 24 08       	mov    %r14,0x8(%rsp)
    25da:	44 8b 74 24 44       	mov    0x44(%rsp),%r14d
    25df:	44 39 74 24 40       	cmp    %r14d,0x40(%rsp)
    25e4:	74 20                	je     2606 <_ZGVbM4vvvvvvvvvvvv_matrix_vector_code_1D+0x356>
    25e6:	43 8d 04 29          	lea    (%r9,%r13,1),%eax
    25ea:	44 01 fa             	add    %r15d,%edx
    25ed:	48 98                	cltq   
    25ef:	48 63 d2             	movslq %edx,%rdx
    25f2:	f2 41 0f 10 04 c3    	movsd  (%r11,%rax,8),%xmm0
    25f8:	f2 41 0f 59 04 d0    	mulsd  (%r8,%rdx,8),%xmm0
    25fe:	f2 0f 58 07          	addsd  (%rdi),%xmm0
    2602:	f2 0f 11 07          	movsd  %xmm0,(%rdi)
    2606:	48 83 c3 08          	add    $0x8,%rbx
    260a:	48 03 74 24 28       	add    0x28(%rsp),%rsi
    260f:	44 03 4c 24 38       	add    0x38(%rsp),%r9d
    2614:	48 39 5c 24 30       	cmp    %rbx,0x30(%rsp)
    2619:	0f 85 11 ff ff ff    	jne    2530 <_ZGVbM4vvvvvvvvvvvv_matrix_vector_code_1D+0x280>
    261f:	48 83 44 24 48 08    	addq   $0x8,0x48(%rsp)
    2625:	8b 5c 24 5c          	mov    0x5c(%rsp),%ebx
    2629:	49 89 ec             	mov    %rbp,%r12
    262c:	01 5c 24 58          	add    %ebx,0x58(%rsp)
    2630:	48 8b 44 24 48       	mov    0x48(%rsp),%rax
    2635:	48 3b 44 24 60       	cmp    0x60(%rsp),%rax
    263a:	0f 85 98 fe ff ff    	jne    24d8 <_ZGVbM4vvvvvvvvvvvv_matrix_vector_code_1D+0x228>
    2640:	48 83 84 24 80 00 00 	addq   $0x4,0x80(%rsp)
    2647:	00 04 
    2649:	48 8b 84 24 80 00 00 	mov    0x80(%rsp),%rax
    2650:	00 
    2651:	48 83 f8 10          	cmp    $0x10,%rax
    2655:	0f 85 61 fd ff ff    	jne    23bc <_ZGVbM4vvvvvvvvvvvv_matrix_vector_code_1D+0x10c>
    265b:	48 8b 84 24 98 01 00 	mov    0x198(%rsp),%rax
    2662:	00 
    2663:	64 48 33 04 25 28 00 	xor    %fs:0x28,%rax
    266a:	00 00 
    266c:	75 5a                	jne    26c8 <_ZGVbM4vvvvvvvvvvvv_matrix_vector_code_1D+0x418>
    266e:	48 81 c4 a8 01 00 00 	add    $0x1a8,%rsp
    2675:	5b                   	pop    %rbx
    2676:	5d                   	pop    %rbp
    2677:	41 5c                	pop    %r12
    2679:	41 5d                	pop    %r13
    267b:	41 5e                	pop    %r14
    267d:	41 5f                	pop    %r15
    267f:	c3                   	retq   
    2680:	48 8b 04 24          	mov    (%rsp),%rax
    2684:	4c 8b 74 24 08       	mov    0x8(%rsp),%r14
    2689:	4c 8b 64 24 50       	mov    0x50(%rsp),%r12
    268e:	4d 8d 54 00 f8       	lea    -0x8(%r8,%rax,1),%r10
    2693:	31 c0                	xor    %eax,%eax
    2695:	0f 1f 00             	nopl   (%rax)
    2698:	f2 41 0f 10 44 c2 f8 	movsd  -0x8(%r10,%rax,8),%xmm0
    269f:	f2 0f 59 04 c6       	mulsd  (%rsi,%rax,8),%xmm0
    26a4:	48 89 c2             	mov    %rax,%rdx
    26a7:	f2 41 0f 58 44 c6 f8 	addsd  -0x8(%r14,%rax,8),%xmm0
    26ae:	f2 41 0f 11 44 c6 f8 	movsd  %xmm0,-0x8(%r14,%rax,8)
    26b5:	48 83 c0 01          	add    $0x1,%rax
    26b9:	4c 39 e2             	cmp    %r12,%rdx
    26bc:	75 da                	jne    2698 <_ZGVbM4vvvvvvvvvvvv_matrix_vector_code_1D+0x3e8>
    26be:	4c 89 74 24 08       	mov    %r14,0x8(%rsp)
    26c3:	e9 3e ff ff ff       	jmpq   2606 <_ZGVbM4vvvvvvvvvvvv_matrix_vector_code_1D+0x356>
    26c8:	e8 63 ea ff ff       	callq  1130 <__stack_chk_fail@plt>
    26cd:	0f 1f 00             	nopl   (%rax)

00000000000026d0 <_ZGVcN4vvvvvvvvvvvv_matrix_vector_code_1D>:
    26d0:	f3 0f 1e fa          	endbr64 
    26d4:	55                   	push   %rbp
    26d5:	48 89 e5             	mov    %rsp,%rbp
    26d8:	41 57                	push   %r15
    26da:	41 56                	push   %r14
    26dc:	41 55                	push   %r13
    26de:	41 54                	push   %r12
    26e0:	53                   	push   %rbx
    26e1:	48 83 e4 e0          	and    $0xffffffffffffffe0,%rsp
    26e5:	48 81 ec 00 02 00 00 	sub    $0x200,%rsp
    26ec:	64 48 8b 04 25 28 00 	mov    %fs:0x28,%rax
    26f3:	00 00 
    26f5:	48 89 84 24 f8 01 00 	mov    %rax,0x1f8(%rsp)
    26fc:	00 
    26fd:	31 c0                	xor    %eax,%eax
    26ff:	48 8d 84 24 30 01 00 	lea    0x130(%rsp),%rax
    2706:	00 
    2707:	c5 f8 29 ac 24 80 01 	vmovaps %xmm5,0x180(%rsp)
    270e:	00 00 
    2710:	c5 f9 6f 6d 10       	vmovdqa 0x10(%rbp),%xmm5
    2715:	c5 f8 29 b4 24 20 01 	vmovaps %xmm6,0x120(%rsp)
    271c:	00 00 
    271e:	c5 f9 6f 75 20       	vmovdqa 0x20(%rbp),%xmm6
    2723:	c5 f8 29 bc 24 90 01 	vmovaps %xmm7,0x190(%rsp)
    272a:	00 00 
    272c:	c5 f9 6f 7d 40       	vmovdqa 0x40(%rbp),%xmm7
    2731:	c5 f8 29 ac 24 a0 01 	vmovaps %xmm5,0x1a0(%rsp)
    2738:	00 00 
    273a:	c5 f9 6f 6d 50       	vmovdqa 0x50(%rbp),%xmm5
    273f:	c5 f8 29 b4 24 30 01 	vmovaps %xmm6,0x130(%rsp)
    2746:	00 00 
    2748:	c5 f9 6f 75 60       	vmovdqa 0x60(%rbp),%xmm6
    274d:	c5 f8 29 bc 24 b0 01 	vmovaps %xmm7,0x1b0(%rsp)
    2754:	00 00 
    2756:	c5 f9 6f bd 80 00 00 	vmovdqa 0x80(%rbp),%xmm7
    275d:	00 
    275e:	c5 f8 29 ac 24 c0 01 	vmovaps %xmm5,0x1c0(%rsp)
    2765:	00 00 
    2767:	c5 f9 6f ad 90 00 00 	vmovdqa 0x90(%rbp),%xmm5
    276e:	00 
    276f:	48 c7 44 24 60 00 00 	movq   $0x0,0x60(%rsp)
    2776:	00 00 
    2778:	c5 f8 29 84 24 00 01 	vmovaps %xmm0,0x100(%rsp)
    277f:	00 00 
    2781:	c5 f8 29 8c 24 10 01 	vmovaps %xmm1,0x110(%rsp)
    2788:	00 00 
    278a:	c5 f8 29 94 24 50 01 	vmovaps %xmm2,0x150(%rsp)
    2791:	00 00 
    2793:	c5 f8 29 9c 24 60 01 	vmovaps %xmm3,0x160(%rsp)
    279a:	00 00 
    279c:	c5 f8 29 a4 24 70 01 	vmovaps %xmm4,0x170(%rsp)
    27a3:	00 00 
    27a5:	c5 f8 29 b4 24 40 01 	vmovaps %xmm6,0x140(%rsp)
    27ac:	00 00 
    27ae:	c5 f8 29 bc 24 d0 01 	vmovaps %xmm7,0x1d0(%rsp)
    27b5:	00 00 
    27b7:	c5 f8 29 ac 24 e0 01 	vmovaps %xmm5,0x1e0(%rsp)
    27be:	00 00 
    27c0:	48 89 44 24 10       	mov    %rax,0x10(%rsp)
    27c5:	48 8d 84 24 70 01 00 	lea    0x170(%rsp),%rax
    27cc:	00 
    27cd:	48 89 44 24 18       	mov    %rax,0x18(%rsp)
    27d2:	48 8d 84 24 d0 01 00 	lea    0x1d0(%rsp),%rax
    27d9:	00 
    27da:	48 89 44 24 58       	mov    %rax,0x58(%rsp)
    27df:	48 8d 84 24 90 01 00 	lea    0x190(%rsp),%rax
    27e6:	00 
    27e7:	48 89 44 24 48       	mov    %rax,0x48(%rsp)
    27ec:	48 8d 84 24 20 01 00 	lea    0x120(%rsp),%rax
    27f3:	00 
    27f4:	48 89 44 24 20       	mov    %rax,0x20(%rsp)
    27f9:	48 8d 84 24 40 01 00 	lea    0x140(%rsp),%rax
    2800:	00 
    2801:	48 89 44 24 50       	mov    %rax,0x50(%rsp)
    2806:	48 8d 84 24 50 01 00 	lea    0x150(%rsp),%rax
    280d:	00 
    280e:	48 89 44 24 38       	mov    %rax,0x38(%rsp)
    2813:	48 8d 84 24 b0 01 00 	lea    0x1b0(%rsp),%rax
    281a:	00 
    281b:	48 89 44 24 28       	mov    %rax,0x28(%rsp)
    2820:	48 8d 84 24 00 01 00 	lea    0x100(%rsp),%rax
    2827:	00 
    2828:	48 89 44 24 40       	mov    %rax,0x40(%rsp)
    282d:	48 8d 84 24 10 01 00 	lea    0x110(%rsp),%rax
    2834:	00 
    2835:	48 89 44 24 30       	mov    %rax,0x30(%rsp)
    283a:	48 8b 7c 24 60       	mov    0x60(%rsp),%rdi
    283f:	48 8b 44 24 10       	mov    0x10(%rsp),%rax
    2844:	48 8b 5c 24 38       	mov    0x38(%rsp),%rbx
    2849:	48 8b 4c 24 28       	mov    0x28(%rsp),%rcx
    284e:	8b 34 38             	mov    (%rax,%rdi,1),%esi
    2851:	48 8b 44 24 18       	mov    0x18(%rsp),%rax
    2856:	48 8b 1c 7b          	mov    (%rbx,%rdi,2),%rbx
    285a:	48 8b 54 24 30       	mov    0x30(%rsp),%rdx
    285f:	4c 8b 34 78          	mov    (%rax,%rdi,2),%r14
    2863:	48 8b 44 24 58       	mov    0x58(%rsp),%rax
    2868:	48 89 9c 24 80 00 00 	mov    %rbx,0x80(%rsp)
    286f:	00 
    2870:	48 89 fb             	mov    %rdi,%rbx
    2873:	4c 8b 14 78          	mov    (%rax,%rdi,2),%r10
    2877:	48 8b 44 24 48       	mov    0x48(%rsp),%rax
    287c:	4c 8b 3c 78          	mov    (%rax,%rdi,2),%r15
    2880:	48 8b 44 24 20       	mov    0x20(%rsp),%rax
    2885:	4c 89 54 24 78       	mov    %r10,0x78(%rsp)
    288a:	44 8b 04 38          	mov    (%rax,%rdi,1),%r8d
    288e:	48 8b 44 24 50       	mov    0x50(%rsp),%rax
    2893:	8b 04 38             	mov    (%rax,%rdi,1),%eax
    2896:	48 8b 3c 79          	mov    (%rcx,%rdi,2),%rdi
    289a:	44 89 84 24 f0 00 00 	mov    %r8d,0xf0(%rsp)
    28a1:	00 
    28a2:	48 8b 4c 24 40       	mov    0x40(%rsp),%rcx
    28a7:	48 63 0c 19          	movslq (%rcx,%rbx,1),%rcx
    28ab:	8b 1c 1a             	mov    (%rdx,%rbx,1),%ebx
    28ae:	89 9c 24 cc 00 00 00 	mov    %ebx,0xcc(%rsp)
    28b5:	85 f6                	test   %esi,%esi
    28b7:	0f 8e 48 03 00 00    	jle    2c05 <_ZGVcN4vvvvvvvvvvvv_matrix_vector_code_1D+0x535>
    28bd:	89 da                	mov    %ebx,%edx
    28bf:	0f af d1             	imul   %ecx,%edx
    28c2:	48 c1 e1 02          	shl    $0x2,%rcx
    28c6:	48 89 8c 24 e8 00 00 	mov    %rcx,0xe8(%rsp)
    28cd:	00 
    28ce:	85 c0                	test   %eax,%eax
    28d0:	0f 8e 2f 03 00 00    	jle    2c05 <_ZGVcN4vvvvvvvvvvvv_matrix_vector_code_1D+0x535>
    28d6:	85 db                	test   %ebx,%ebx
    28d8:	0f 8e 27 03 00 00    	jle    2c05 <_ZGVcN4vvvvvvvvvvvv_matrix_vector_code_1D+0x535>
    28de:	44 89 c1             	mov    %r8d,%ecx
    28e1:	48 89 bc 24 98 00 00 	mov    %rdi,0x98(%rsp)
    28e8:	00 
    28e9:	c7 84 24 94 00 00 00 	movl   $0x0,0x94(%rsp)
    28f0:	00 00 00 00 
    28f4:	0f af c8             	imul   %eax,%ecx
    28f7:	83 e8 01             	sub    $0x1,%eax
    28fa:	49 8d 44 c2 08       	lea    0x8(%r10,%rax,8),%rax
    28ff:	48 89 84 24 d8 00 00 	mov    %rax,0xd8(%rsp)
    2906:	00 
    2907:	89 d8                	mov    %ebx,%eax
    2909:	89 8c 24 90 00 00 00 	mov    %ecx,0x90(%rsp)
    2910:	8d 4e ff             	lea    -0x1(%rsi),%ecx
    2913:	c1 e8 02             	shr    $0x2,%eax
    2916:	48 8d 7c cf 08       	lea    0x8(%rdi,%rcx,8),%rdi
    291b:	49 63 c8             	movslq %r8d,%rcx
    291e:	48 c1 e0 05          	shl    $0x5,%rax
    2922:	48 89 7c 24 70       	mov    %rdi,0x70(%rsp)
    2927:	48 8d 3c cd 00 00 00 	lea    0x0(,%rcx,8),%rdi
    292e:	00 
    292f:	49 89 c5             	mov    %rax,%r13
    2932:	89 d8                	mov    %ebx,%eax
    2934:	48 89 bc 24 e0 00 00 	mov    %rdi,0xe0(%rsp)
    293b:	00 
    293c:	89 df                	mov    %ebx,%edi
    293e:	83 e8 01             	sub    $0x1,%eax
    2941:	83 e7 fc             	and    $0xfffffffc,%edi
    2944:	89 84 24 d4 00 00 00 	mov    %eax,0xd4(%rsp)
    294b:	8d 1c 3a             	lea    (%rdx,%rdi,1),%ebx
    294e:	89 bc 24 d0 00 00 00 	mov    %edi,0xd0(%rsp)
    2955:	89 9c 24 b4 00 00 00 	mov    %ebx,0xb4(%rsp)
    295c:	8d 5f ff             	lea    -0x1(%rdi),%ebx
    295f:	89 9c 24 c8 00 00 00 	mov    %ebx,0xc8(%rsp)
    2966:	8d 5f 01             	lea    0x1(%rdi),%ebx
    2969:	83 c7 02             	add    $0x2,%edi
    296c:	89 bc 24 b0 00 00 00 	mov    %edi,0xb0(%rsp)
    2973:	01 d7                	add    %edx,%edi
    2975:	89 9c 24 f4 00 00 00 	mov    %ebx,0xf4(%rsp)
    297c:	01 d3                	add    %edx,%ebx
    297e:	89 bc 24 a0 00 00 00 	mov    %edi,0xa0(%rsp)
    2985:	48 63 fa             	movslq %edx,%rdi
    2988:	89 9c 24 a4 00 00 00 	mov    %ebx,0xa4(%rsp)
    298f:	48 89 7c 24 68       	mov    %rdi,0x68(%rsp)
    2994:	48 89 84 24 88 00 00 	mov    %rax,0x88(%rsp)
    299b:	00 
    299c:	0f 1f 40 00          	nopl   0x0(%rax)
    29a0:	48 63 84 24 94 00 00 	movslq 0x94(%rsp),%rax
    29a7:	00 
    29a8:	48 8b bc 24 e8 00 00 	mov    0xe8(%rsp),%rdi
    29af:	00 
    29b0:	48 8b 9c 24 80 00 00 	mov    0x80(%rsp),%rbx
    29b7:	00 
    29b8:	4c 8b 44 24 78       	mov    0x78(%rsp),%r8
    29bd:	49 89 c2             	mov    %rax,%r10
    29c0:	48 03 44 24 68       	add    0x68(%rsp),%rax
    29c5:	49 8d 0c c7          	lea    (%r15,%rax,8),%rcx
    29c9:	48 8b 84 24 98 00 00 	mov    0x98(%rsp),%rax
    29d0:	00 
    29d1:	48 8b 00             	mov    (%rax),%rax
    29d4:	48 63 04 38          	movslq (%rax,%rdi,1),%rax
    29d8:	8b bc 24 c8 00 00 00 	mov    0xc8(%rsp),%edi
    29df:	01 c7                	add    %eax,%edi
    29e1:	4c 8d 64 c3 18       	lea    0x18(%rbx,%rax,8),%r12
    29e6:	48 8d 54 c3 f8       	lea    -0x8(%rbx,%rax,8),%rdx
    29eb:	48 89 c6             	mov    %rax,%rsi
    29ee:	48 63 ff             	movslq %edi,%rdi
    29f1:	03 b4 24 f4 00 00 00 	add    0xf4(%rsp),%esi
    29f8:	4c 8d 0c c3          	lea    (%rbx,%rax,8),%r9
    29fc:	48 8d 3c fb          	lea    (%rbx,%rdi,8),%rdi
    2a00:	48 63 f6             	movslq %esi,%rsi
    2a03:	48 89 bc 24 c0 00 00 	mov    %rdi,0xc0(%rsp)
    2a0a:	00 
    2a0b:	8b bc 24 d0 00 00 00 	mov    0xd0(%rsp),%edi
    2a12:	01 c7                	add    %eax,%edi
    2a14:	48 63 ff             	movslq %edi,%rdi
    2a17:	48 8d 3c fb          	lea    (%rbx,%rdi,8),%rdi
    2a1b:	48 89 bc 24 b8 00 00 	mov    %rdi,0xb8(%rsp)
    2a22:	00 
    2a23:	48 8d 3c f3          	lea    (%rbx,%rsi,8),%rdi
    2a27:	48 89 bc 24 a8 00 00 	mov    %rdi,0xa8(%rsp)
    2a2e:	00 
    2a2f:	90                   	nop
    2a30:	48 8b bc 24 e8 00 00 	mov    0xe8(%rsp),%rdi
    2a37:	00 
    2a38:	49 8b 00             	mov    (%r8),%rax
    2a3b:	48 63 04 38          	movslq (%rax,%rdi,1),%rax
    2a3f:	48 89 c7             	mov    %rax,%rdi
    2a42:	49 8d 74 c6 f8       	lea    -0x8(%r14,%rax,8),%rsi
    2a47:	4c 8d 1c c5 18 00 00 	lea    0x18(,%rax,8),%r11
    2a4e:	00 
    2a4f:	48 8d 41 20          	lea    0x20(%rcx),%rax
    2a53:	48 39 c2             	cmp    %rax,%rdx
    2a56:	0f 93 c3             	setae  %bl
    2a59:	4c 39 e1             	cmp    %r12,%rcx
    2a5c:	0f 93 c0             	setae  %al
    2a5f:	09 d8                	or     %ebx,%eax
    2a61:	83 bc 24 d4 00 00 00 	cmpl   $0x2,0xd4(%rsp)
    2a68:	02 
    2a69:	0f 97 c3             	seta   %bl
    2a6c:	84 d8                	test   %bl,%al
    2a6e:	0f 84 cc 01 00 00    	je     2c40 <_ZGVcN4vvvvvvvvvvvv_matrix_vector_code_1D+0x570>
    2a74:	4b 8d 04 1e          	lea    (%r14,%r11,1),%rax
    2a78:	48 39 c2             	cmp    %rax,%rdx
    2a7b:	0f 93 84 24 f8 00 00 	setae  0xf8(%rsp)
    2a82:	00 
    2a83:	4c 39 e6             	cmp    %r12,%rsi
    2a86:	0f b6 84 24 f8 00 00 	movzbl 0xf8(%rsp),%eax
    2a8d:	00 
    2a8e:	48 c7 84 24 f8 00 00 	movq   $0x0,0xf8(%rsp)
    2a95:	00 00 00 00 00 
    2a9a:	0f 93 c3             	setae  %bl
    2a9d:	08 d8                	or     %bl,%al
    2a9f:	0f 84 9b 01 00 00    	je     2c40 <_ZGVcN4vvvvvvvvvvvv_matrix_vector_code_1D+0x570>
    2aa5:	31 c0                	xor    %eax,%eax
    2aa7:	66 0f 1f 84 00 00 00 	nopw   0x0(%rax,%rax,1)
    2aae:	00 00 
    2ab0:	c5 f9 10 14 01       	vmovupd (%rcx,%rax,1),%xmm2
    2ab5:	c5 f9 10 1c 06       	vmovupd (%rsi,%rax,1),%xmm3
    2aba:	c4 e3 6d 18 44 01 10 	vinsertf128 $0x1,0x10(%rcx,%rax,1),%ymm2,%ymm0
    2ac1:	01 
    2ac2:	c4 e3 65 18 4c 06 10 	vinsertf128 $0x1,0x10(%rsi,%rax,1),%ymm3,%ymm1
    2ac9:	01 
    2aca:	c5 f9 10 24 02       	vmovupd (%rdx,%rax,1),%xmm4
    2acf:	c5 fd 59 c1          	vmulpd %ymm1,%ymm0,%ymm0
    2ad3:	c4 e3 5d 18 4c 02 10 	vinsertf128 $0x1,0x10(%rdx,%rax,1),%ymm4,%ymm1
    2ada:	01 
    2adb:	c5 fd 58 c1          	vaddpd %ymm1,%ymm0,%ymm0
    2adf:	c5 f8 11 04 02       	vmovups %xmm0,(%rdx,%rax,1)
    2ae4:	c4 e3 7d 19 44 02 10 	vextractf128 $0x1,%ymm0,0x10(%rdx,%rax,1)
    2aeb:	01 
    2aec:	48 83 c0 20          	add    $0x20,%rax
    2af0:	4c 39 e8             	cmp    %r13,%rax
    2af3:	75 bb                	jne    2ab0 <_ZGVcN4vvvvvvvvvvvv_matrix_vector_code_1D+0x3e0>
    2af5:	8b 9c 24 cc 00 00 00 	mov    0xcc(%rsp),%ebx
    2afc:	44 8b 9c 24 d0 00 00 	mov    0xd0(%rsp),%r11d
    2b03:	00 
    2b04:	44 39 db             	cmp    %r11d,%ebx
    2b07:	0f 84 ac 00 00 00    	je     2bb9 <_ZGVcN4vvvvvvvvvvvv_matrix_vector_code_1D+0x4e9>
    2b0d:	8b 84 24 b4 00 00 00 	mov    0xb4(%rsp),%eax
    2b14:	42 8d 34 10          	lea    (%rax,%r10,1),%esi
    2b18:	8b 84 24 c8 00 00 00 	mov    0xc8(%rsp),%eax
    2b1f:	48 63 f6             	movslq %esi,%rsi
    2b22:	01 f8                	add    %edi,%eax
    2b24:	c4 c1 7b 10 04 f7    	vmovsd (%r15,%rsi,8),%xmm0
    2b2a:	48 98                	cltq   
    2b2c:	c4 c1 7b 59 04 c6    	vmulsd (%r14,%rax,8),%xmm0,%xmm0
    2b32:	48 8b 84 24 c0 00 00 	mov    0xc0(%rsp),%rax
    2b39:	00 
    2b3a:	c5 fb 58 00          	vaddsd (%rax),%xmm0,%xmm0
    2b3e:	c5 fb 11 00          	vmovsd %xmm0,(%rax)
    2b42:	8b 84 24 f4 00 00 00 	mov    0xf4(%rsp),%eax
    2b49:	39 c3                	cmp    %eax,%ebx
    2b4b:	7e 6c                	jle    2bb9 <_ZGVcN4vvvvvvvvvvvv_matrix_vector_code_1D+0x4e9>
    2b4d:	8b b4 24 a4 00 00 00 	mov    0xa4(%rsp),%esi
    2b54:	42 8d 04 1f          	lea    (%rdi,%r11,1),%eax
    2b58:	48 98                	cltq   
    2b5a:	44 01 d6             	add    %r10d,%esi
    2b5d:	48 63 f6             	movslq %esi,%rsi
    2b60:	c4 c1 7b 10 04 f7    	vmovsd (%r15,%rsi,8),%xmm0
    2b66:	48 8b b4 24 b8 00 00 	mov    0xb8(%rsp),%rsi
    2b6d:	00 
    2b6e:	c4 c1 7b 59 04 c6    	vmulsd (%r14,%rax,8),%xmm0,%xmm0
    2b74:	c5 fb 58 06          	vaddsd (%rsi),%xmm0,%xmm0
    2b78:	c5 fb 11 06          	vmovsd %xmm0,(%rsi)
    2b7c:	8b b4 24 b0 00 00 00 	mov    0xb0(%rsp),%esi
    2b83:	39 f3                	cmp    %esi,%ebx
    2b85:	7e 32                	jle    2bb9 <_ZGVcN4vvvvvvvvvvvv_matrix_vector_code_1D+0x4e9>
    2b87:	8b 84 24 a0 00 00 00 	mov    0xa0(%rsp),%eax
    2b8e:	03 bc 24 f4 00 00 00 	add    0xf4(%rsp),%edi
    2b95:	48 63 ff             	movslq %edi,%rdi
    2b98:	44 01 d0             	add    %r10d,%eax
    2b9b:	c4 c1 7b 10 04 fe    	vmovsd (%r14,%rdi,8),%xmm0
    2ba1:	48 98                	cltq   
    2ba3:	c4 c1 7b 59 04 c7    	vmulsd (%r15,%rax,8),%xmm0,%xmm0
    2ba9:	48 8b 84 24 a8 00 00 	mov    0xa8(%rsp),%rax
    2bb0:	00 
    2bb1:	c5 fb 58 00          	vaddsd (%rax),%xmm0,%xmm0
    2bb5:	c5 fb 11 00          	vmovsd %xmm0,(%rax)
    2bb9:	49 83 c0 08          	add    $0x8,%r8
    2bbd:	48 03 8c 24 e0 00 00 	add    0xe0(%rsp),%rcx
    2bc4:	00 
    2bc5:	44 03 94 24 f0 00 00 	add    0xf0(%rsp),%r10d
    2bcc:	00 
    2bcd:	4c 3b 84 24 d8 00 00 	cmp    0xd8(%rsp),%r8
    2bd4:	00 
    2bd5:	0f 85 55 fe ff ff    	jne    2a30 <_ZGVcN4vvvvvvvvvvvv_matrix_vector_code_1D+0x360>
    2bdb:	48 83 84 24 98 00 00 	addq   $0x8,0x98(%rsp)
    2be2:	00 08 
    2be4:	8b bc 24 90 00 00 00 	mov    0x90(%rsp),%edi
    2beb:	48 8b 84 24 98 00 00 	mov    0x98(%rsp),%rax
    2bf2:	00 
    2bf3:	01 bc 24 94 00 00 00 	add    %edi,0x94(%rsp)
    2bfa:	48 3b 44 24 70       	cmp    0x70(%rsp),%rax
    2bff:	0f 85 9b fd ff ff    	jne    29a0 <_ZGVcN4vvvvvvvvvvvv_matrix_vector_code_1D+0x2d0>
    2c05:	48 83 44 24 60 04    	addq   $0x4,0x60(%rsp)
    2c0b:	48 8b 44 24 60       	mov    0x60(%rsp),%rax
    2c10:	48 83 f8 10          	cmp    $0x10,%rax
    2c14:	0f 85 20 fc ff ff    	jne    283a <_ZGVcN4vvvvvvvvvvvv_matrix_vector_code_1D+0x16a>
    2c1a:	48 8b 84 24 f8 01 00 	mov    0x1f8(%rsp),%rax
    2c21:	00 
    2c22:	64 48 33 04 25 28 00 	xor    %fs:0x28,%rax
    2c29:	00 00 
    2c2b:	75 4d                	jne    2c7a <_ZGVcN4vvvvvvvvvvvv_matrix_vector_code_1D+0x5aa>
    2c2d:	c5 f8 77             	vzeroupper 
    2c30:	48 8d 65 d8          	lea    -0x28(%rbp),%rsp
    2c34:	5b                   	pop    %rbx
    2c35:	41 5c                	pop    %r12
    2c37:	41 5d                	pop    %r13
    2c39:	41 5e                	pop    %r14
    2c3b:	41 5f                	pop    %r15
    2c3d:	5d                   	pop    %rbp
    2c3e:	c3                   	retq   
    2c3f:	90                   	nop
    2c40:	4b 8d 7c 1e e8       	lea    -0x18(%r14,%r11,1),%rdi
    2c45:	4c 8b 9c 24 88 00 00 	mov    0x88(%rsp),%r11
    2c4c:	00 
    2c4d:	31 c0                	xor    %eax,%eax
    2c4f:	90                   	nop
    2c50:	c5 fb 10 44 c7 f8    	vmovsd -0x8(%rdi,%rax,8),%xmm0
    2c56:	c5 fb 59 04 c1       	vmulsd (%rcx,%rax,8),%xmm0,%xmm0
    2c5b:	48 89 c6             	mov    %rax,%rsi
    2c5e:	c4 c1 7b 58 44 c1 f8 	vaddsd -0x8(%r9,%rax,8),%xmm0,%xmm0
    2c65:	c4 c1 7b 11 44 c1 f8 	vmovsd %xmm0,-0x8(%r9,%rax,8)
    2c6c:	48 83 c0 01          	add    $0x1,%rax
    2c70:	4c 39 de             	cmp    %r11,%rsi
    2c73:	75 db                	jne    2c50 <_ZGVcN4vvvvvvvvvvvv_matrix_vector_code_1D+0x580>
    2c75:	e9 3f ff ff ff       	jmpq   2bb9 <_ZGVcN4vvvvvvvvvvvv_matrix_vector_code_1D+0x4e9>
    2c7a:	c5 f8 77             	vzeroupper 
    2c7d:	e8 ae e4 ff ff       	callq  1130 <__stack_chk_fail@plt>
    2c82:	66 66 2e 0f 1f 84 00 	data16 nopw %cs:0x0(%rax,%rax,1)
    2c89:	00 00 00 00 
    2c8d:	0f 1f 00             	nopl   (%rax)

0000000000002c90 <_ZGVcM4vvvvvvvvvvvv_matrix_vector_code_1D>:
    2c90:	f3 0f 1e fa          	endbr64 
    2c94:	55                   	push   %rbp
    2c95:	48 89 e5             	mov    %rsp,%rbp
    2c98:	41 57                	push   %r15
    2c9a:	41 56                	push   %r14
    2c9c:	41 55                	push   %r13
    2c9e:	41 54                	push   %r12
    2ca0:	53                   	push   %rbx
    2ca1:	48 83 e4 e0          	and    $0xffffffffffffffe0,%rsp
    2ca5:	48 81 ec c0 01 00 00 	sub    $0x1c0,%rsp
    2cac:	64 48 8b 04 25 28 00 	mov    %fs:0x28,%rax
    2cb3:	00 00 
    2cb5:	48 89 84 24 b8 01 00 	mov    %rax,0x1b8(%rsp)
    2cbc:	00 
    2cbd:	31 c0                	xor    %eax,%eax
    2cbf:	48 8d 84 24 00 01 00 	lea    0x100(%rsp),%rax
    2cc6:	00 
    2cc7:	c5 f8 29 ac 24 40 01 	vmovaps %xmm5,0x140(%rsp)
    2cce:	00 00 
    2cd0:	c5 f9 6f 6d 10       	vmovdqa 0x10(%rbp),%xmm5
    2cd5:	c5 f8 29 b4 24 d0 00 	vmovaps %xmm6,0xd0(%rsp)
    2cdc:	00 00 
    2cde:	c5 f9 6f 75 20       	vmovdqa 0x20(%rbp),%xmm6
    2ce3:	c5 f8 29 bc 24 50 01 	vmovaps %xmm7,0x150(%rsp)
    2cea:	00 00 
    2cec:	c5 f9 6f 7d 40       	vmovdqa 0x40(%rbp),%xmm7
    2cf1:	c5 f8 29 ac 24 60 01 	vmovaps %xmm5,0x160(%rsp)
    2cf8:	00 00 
    2cfa:	c5 f9 6f 6d 50       	vmovdqa 0x50(%rbp),%xmm5
    2cff:	c5 f8 29 b4 24 e0 00 	vmovaps %xmm6,0xe0(%rsp)
    2d06:	00 00 
    2d08:	c5 f9 6f 75 60       	vmovdqa 0x60(%rbp),%xmm6
    2d0d:	c5 f8 29 bc 24 70 01 	vmovaps %xmm7,0x170(%rsp)
    2d14:	00 00 
    2d16:	c5 f9 6f bd 80 00 00 	vmovdqa 0x80(%rbp),%xmm7
    2d1d:	00 
    2d1e:	c5 f8 29 ac 24 80 01 	vmovaps %xmm5,0x180(%rsp)
    2d25:	00 00 
    2d27:	c5 f9 6f ad 90 00 00 	vmovdqa 0x90(%rbp),%xmm5
    2d2e:	00 
    2d2f:	c5 f8 29 b4 24 f0 00 	vmovaps %xmm6,0xf0(%rsp)
    2d36:	00 00 
    2d38:	c5 f9 6f b5 a0 00 00 	vmovdqa 0xa0(%rbp),%xmm6
    2d3f:	00 
    2d40:	c5 f8 29 84 24 b0 00 	vmovaps %xmm0,0xb0(%rsp)
    2d47:	00 00 
    2d49:	c5 f8 29 8c 24 c0 00 	vmovaps %xmm1,0xc0(%rsp)
    2d50:	00 00 
    2d52:	c5 f8 29 94 24 10 01 	vmovaps %xmm2,0x110(%rsp)
    2d59:	00 00 
    2d5b:	c5 f8 29 9c 24 20 01 	vmovaps %xmm3,0x120(%rsp)
    2d62:	00 00 
    2d64:	c5 f8 29 a4 24 30 01 	vmovaps %xmm4,0x130(%rsp)
    2d6b:	00 00 
    2d6d:	c5 f8 29 bc 24 90 01 	vmovaps %xmm7,0x190(%rsp)
    2d74:	00 00 
    2d76:	c5 f8 29 ac 24 a0 01 	vmovaps %xmm5,0x1a0(%rsp)
    2d7d:	00 00 
    2d7f:	c5 f8 29 b4 24 00 01 	vmovaps %xmm6,0x100(%rsp)
    2d86:	00 00 
    2d88:	48 c7 44 24 10 00 00 	movq   $0x0,0x10(%rsp)
    2d8f:	00 00 
    2d91:	48 89 44 24 08       	mov    %rax,0x8(%rsp)
    2d96:	48 8b 7c 24 08       	mov    0x8(%rsp),%rdi
    2d9b:	48 8b 44 24 10       	mov    0x10(%rsp),%rax
    2da0:	8b 14 07             	mov    (%rdi,%rax,1),%edx
    2da3:	85 d2                	test   %edx,%edx
    2da5:	0f 84 63 03 00 00    	je     310e <_ZGVcM4vvvvvvvvvvvv_matrix_vector_code_1D+0x47e>
    2dab:	8b b4 04 e0 00 00 00 	mov    0xe0(%rsp,%rax,1),%esi
    2db2:	85 f6                	test   %esi,%esi
    2db4:	0f 8e 54 03 00 00    	jle    310e <_ZGVcM4vvvvvvvvvvvv_matrix_vector_code_1D+0x47e>
    2dba:	48 8b bc 44 10 01 00 	mov    0x110(%rsp,%rax,2),%rdi
    2dc1:	00 
    2dc2:	8b 9c 04 c0 00 00 00 	mov    0xc0(%rsp,%rax,1),%ebx
    2dc9:	48 63 8c 04 b0 00 00 	movslq 0xb0(%rsp,%rax,1),%rcx
    2dd0:	00 
    2dd1:	4c 8b 94 44 90 01 00 	mov    0x190(%rsp,%rax,2),%r10
    2dd8:	00 
    2dd9:	44 8b 84 04 d0 00 00 	mov    0xd0(%rsp,%rax,1),%r8d
    2de0:	00 
    2de1:	48 89 7c 24 28       	mov    %rdi,0x28(%rsp)
    2de6:	4c 8b b4 44 30 01 00 	mov    0x130(%rsp,%rax,2),%r14
    2ded:	00 
    2dee:	4c 8b bc 44 50 01 00 	mov    0x150(%rsp,%rax,2),%r15
    2df5:	00 
    2df6:	4c 89 54 24 20       	mov    %r10,0x20(%rsp)
    2dfb:	8b 94 04 f0 00 00 00 	mov    0xf0(%rsp,%rax,1),%edx
    2e02:	48 8b bc 44 70 01 00 	mov    0x170(%rsp,%rax,2),%rdi
    2e09:	00 
    2e0a:	89 d8                	mov    %ebx,%eax
    2e0c:	89 5c 24 7c          	mov    %ebx,0x7c(%rsp)
    2e10:	0f af c1             	imul   %ecx,%eax
    2e13:	48 c1 e1 02          	shl    $0x2,%rcx
    2e17:	44 89 84 24 a0 00 00 	mov    %r8d,0xa0(%rsp)
    2e1e:	00 
    2e1f:	48 89 8c 24 98 00 00 	mov    %rcx,0x98(%rsp)
    2e26:	00 
    2e27:	85 d2                	test   %edx,%edx
    2e29:	0f 8e df 02 00 00    	jle    310e <_ZGVcM4vvvvvvvvvvvv_matrix_vector_code_1D+0x47e>
    2e2f:	85 db                	test   %ebx,%ebx
    2e31:	0f 8e d7 02 00 00    	jle    310e <_ZGVcM4vvvvvvvvvvvv_matrix_vector_code_1D+0x47e>
    2e37:	44 89 c1             	mov    %r8d,%ecx
    2e3a:	48 89 7c 24 48       	mov    %rdi,0x48(%rsp)
    2e3f:	0f af ca             	imul   %edx,%ecx
    2e42:	83 ea 01             	sub    $0x1,%edx
    2e45:	c7 44 24 44 00 00 00 	movl   $0x0,0x44(%rsp)
    2e4c:	00 
    2e4d:	89 4c 24 40          	mov    %ecx,0x40(%rsp)
    2e51:	8d 4e ff             	lea    -0x1(%rsi),%ecx
    2e54:	48 8d 7c cf 08       	lea    0x8(%rdi,%rcx,8),%rdi
    2e59:	49 63 c8             	movslq %r8d,%rcx
    2e5c:	48 89 7c 24 30       	mov    %rdi,0x30(%rsp)
    2e61:	48 8d 3c cd 00 00 00 	lea    0x0(,%rcx,8),%rdi
    2e68:	00 
    2e69:	48 89 bc 24 90 00 00 	mov    %rdi,0x90(%rsp)
    2e70:	00 
    2e71:	49 8d 7c d2 08       	lea    0x8(%r10,%rdx,8),%rdi
    2e76:	48 89 bc 24 88 00 00 	mov    %rdi,0x88(%rsp)
    2e7d:	00 
    2e7e:	89 df                	mov    %ebx,%edi
    2e80:	c1 ef 02             	shr    $0x2,%edi
    2e83:	89 fa                	mov    %edi,%edx
    2e85:	89 df                	mov    %ebx,%edi
    2e87:	83 e3 fc             	and    $0xfffffffc,%ebx
    2e8a:	8d 0c 18             	lea    (%rax,%rbx,1),%ecx
    2e8d:	89 9c 24 80 00 00 00 	mov    %ebx,0x80(%rsp)
    2e94:	83 ef 01             	sub    $0x1,%edi
    2e97:	48 c1 e2 05          	shl    $0x5,%rdx
    2e9b:	89 4c 24 64          	mov    %ecx,0x64(%rsp)
    2e9f:	8d 4b ff             	lea    -0x1(%rbx),%ecx
    2ea2:	49 89 d5             	mov    %rdx,%r13
    2ea5:	89 4c 24 78          	mov    %ecx,0x78(%rsp)
    2ea9:	8d 4b 01             	lea    0x1(%rbx),%ecx
    2eac:	83 c3 02             	add    $0x2,%ebx
    2eaf:	89 8c 24 a4 00 00 00 	mov    %ecx,0xa4(%rsp)
    2eb6:	01 c1                	add    %eax,%ecx
    2eb8:	89 5c 24 60          	mov    %ebx,0x60(%rsp)
    2ebc:	01 c3                	add    %eax,%ebx
    2ebe:	48 98                	cltq   
    2ec0:	48 89 44 24 18       	mov    %rax,0x18(%rsp)
    2ec5:	89 f8                	mov    %edi,%eax
    2ec7:	89 4c 24 54          	mov    %ecx,0x54(%rsp)
    2ecb:	89 5c 24 50          	mov    %ebx,0x50(%rsp)
    2ecf:	89 bc 24 84 00 00 00 	mov    %edi,0x84(%rsp)
    2ed6:	48 89 44 24 38       	mov    %rax,0x38(%rsp)
    2edb:	0f 1f 44 00 00       	nopl   0x0(%rax,%rax,1)
    2ee0:	48 63 44 24 44       	movslq 0x44(%rsp),%rax
    2ee5:	48 8b bc 24 98 00 00 	mov    0x98(%rsp),%rdi
    2eec:	00 
    2eed:	48 8b 5c 24 28       	mov    0x28(%rsp),%rbx
    2ef2:	4c 8b 44 24 20       	mov    0x20(%rsp),%r8
    2ef7:	49 89 c2             	mov    %rax,%r10
    2efa:	48 03 44 24 18       	add    0x18(%rsp),%rax
    2eff:	49 8d 0c c7          	lea    (%r15,%rax,8),%rcx
    2f03:	48 8b 44 24 48       	mov    0x48(%rsp),%rax
    2f08:	48 8b 00             	mov    (%rax),%rax
    2f0b:	48 63 04 38          	movslq (%rax,%rdi,1),%rax
    2f0f:	8b 7c 24 78          	mov    0x78(%rsp),%edi
    2f13:	01 c7                	add    %eax,%edi
    2f15:	4c 8d 64 c3 18       	lea    0x18(%rbx,%rax,8),%r12
    2f1a:	48 8d 54 c3 f8       	lea    -0x8(%rbx,%rax,8),%rdx
    2f1f:	48 89 c6             	mov    %rax,%rsi
    2f22:	48 63 ff             	movslq %edi,%rdi
    2f25:	03 b4 24 a4 00 00 00 	add    0xa4(%rsp),%esi
    2f2c:	4c 8d 0c c3          	lea    (%rbx,%rax,8),%r9
    2f30:	48 8d 3c fb          	lea    (%rbx,%rdi,8),%rdi
    2f34:	48 63 f6             	movslq %esi,%rsi
    2f37:	48 89 7c 24 70       	mov    %rdi,0x70(%rsp)
    2f3c:	8b bc 24 80 00 00 00 	mov    0x80(%rsp),%edi
    2f43:	01 c7                	add    %eax,%edi
    2f45:	48 63 ff             	movslq %edi,%rdi
    2f48:	48 8d 3c fb          	lea    (%rbx,%rdi,8),%rdi
    2f4c:	48 89 7c 24 68       	mov    %rdi,0x68(%rsp)
    2f51:	48 8d 3c f3          	lea    (%rbx,%rsi,8),%rdi
    2f55:	48 89 7c 24 58       	mov    %rdi,0x58(%rsp)
    2f5a:	66 0f 1f 44 00 00    	nopw   0x0(%rax,%rax,1)
    2f60:	48 8b bc 24 98 00 00 	mov    0x98(%rsp),%rdi
    2f67:	00 
    2f68:	49 8b 00             	mov    (%r8),%rax
    2f6b:	48 63 04 38          	movslq (%rax,%rdi,1),%rax
    2f6f:	48 89 c7             	mov    %rax,%rdi
    2f72:	49 8d 74 c6 f8       	lea    -0x8(%r14,%rax,8),%rsi
    2f77:	4c 8d 1c c5 18 00 00 	lea    0x18(,%rax,8),%r11
    2f7e:	00 
    2f7f:	48 8d 41 20          	lea    0x20(%rcx),%rax
    2f83:	48 39 c2             	cmp    %rax,%rdx
    2f86:	0f 93 c3             	setae  %bl
    2f89:	4c 39 e1             	cmp    %r12,%rcx
    2f8c:	0f 93 c0             	setae  %al
    2f8f:	09 d8                	or     %ebx,%eax
    2f91:	83 bc 24 84 00 00 00 	cmpl   $0x2,0x84(%rsp)
    2f98:	02 
    2f99:	0f 97 c3             	seta   %bl
    2f9c:	84 d8                	test   %bl,%al
    2f9e:	0f 84 ac 01 00 00    	je     3150 <_ZGVcM4vvvvvvvvvvvv_matrix_vector_code_1D+0x4c0>
    2fa4:	4b 8d 04 1e          	lea    (%r14,%r11,1),%rax
    2fa8:	48 39 c2             	cmp    %rax,%rdx
    2fab:	0f 93 84 24 a8 00 00 	setae  0xa8(%rsp)
    2fb2:	00 
    2fb3:	4c 39 e6             	cmp    %r12,%rsi
    2fb6:	0f b6 84 24 a8 00 00 	movzbl 0xa8(%rsp),%eax
    2fbd:	00 
    2fbe:	48 c7 84 24 a8 00 00 	movq   $0x0,0xa8(%rsp)
    2fc5:	00 00 00 00 00 
    2fca:	0f 93 c3             	setae  %bl
    2fcd:	08 d8                	or     %bl,%al
    2fcf:	0f 84 7b 01 00 00    	je     3150 <_ZGVcM4vvvvvvvvvvvv_matrix_vector_code_1D+0x4c0>
    2fd5:	31 c0                	xor    %eax,%eax
    2fd7:	66 0f 1f 84 00 00 00 	nopw   0x0(%rax,%rax,1)
    2fde:	00 00 
    2fe0:	c5 f9 10 14 01       	vmovupd (%rcx,%rax,1),%xmm2
    2fe5:	c5 f9 10 1c 06       	vmovupd (%rsi,%rax,1),%xmm3
    2fea:	c4 e3 6d 18 44 01 10 	vinsertf128 $0x1,0x10(%rcx,%rax,1),%ymm2,%ymm0
    2ff1:	01 
    2ff2:	c4 e3 65 18 4c 06 10 	vinsertf128 $0x1,0x10(%rsi,%rax,1),%ymm3,%ymm1
    2ff9:	01 
    2ffa:	c5 f9 10 24 02       	vmovupd (%rdx,%rax,1),%xmm4
    2fff:	c5 fd 59 c1          	vmulpd %ymm1,%ymm0,%ymm0
    3003:	c4 e3 5d 18 4c 02 10 	vinsertf128 $0x1,0x10(%rdx,%rax,1),%ymm4,%ymm1
    300a:	01 
    300b:	c5 fd 58 c1          	vaddpd %ymm1,%ymm0,%ymm0
    300f:	c5 f8 11 04 02       	vmovups %xmm0,(%rdx,%rax,1)
    3014:	c4 e3 7d 19 44 02 10 	vextractf128 $0x1,%ymm0,0x10(%rdx,%rax,1)
    301b:	01 
    301c:	48 83 c0 20          	add    $0x20,%rax
    3020:	4c 39 e8             	cmp    %r13,%rax
    3023:	75 bb                	jne    2fe0 <_ZGVcM4vvvvvvvvvvvv_matrix_vector_code_1D+0x350>
    3025:	8b 5c 24 7c          	mov    0x7c(%rsp),%ebx
    3029:	44 8b 9c 24 80 00 00 	mov    0x80(%rsp),%r11d
    3030:	00 
    3031:	44 39 db             	cmp    %r11d,%ebx
    3034:	0f 84 94 00 00 00    	je     30ce <_ZGVcM4vvvvvvvvvvvv_matrix_vector_code_1D+0x43e>
    303a:	8b 44 24 64          	mov    0x64(%rsp),%eax
    303e:	42 8d 34 10          	lea    (%rax,%r10,1),%esi
    3042:	8b 44 24 78          	mov    0x78(%rsp),%eax
    3046:	48 63 f6             	movslq %esi,%rsi
    3049:	01 f8                	add    %edi,%eax
    304b:	c4 c1 7b 10 04 f7    	vmovsd (%r15,%rsi,8),%xmm0
    3051:	48 98                	cltq   
    3053:	c4 c1 7b 59 04 c6    	vmulsd (%r14,%rax,8),%xmm0,%xmm0
    3059:	48 8b 44 24 70       	mov    0x70(%rsp),%rax
    305e:	c5 fb 58 00          	vaddsd (%rax),%xmm0,%xmm0
    3062:	c5 fb 11 00          	vmovsd %xmm0,(%rax)
    3066:	8b 84 24 a4 00 00 00 	mov    0xa4(%rsp),%eax
    306d:	39 c3                	cmp    %eax,%ebx
    306f:	7e 5d                	jle    30ce <_ZGVcM4vvvvvvvvvvvv_matrix_vector_code_1D+0x43e>
    3071:	8b 74 24 54          	mov    0x54(%rsp),%esi
    3075:	42 8d 04 1f          	lea    (%rdi,%r11,1),%eax
    3079:	48 98                	cltq   
    307b:	44 01 d6             	add    %r10d,%esi
    307e:	48 63 f6             	movslq %esi,%rsi
    3081:	c4 c1 7b 10 04 f7    	vmovsd (%r15,%rsi,8),%xmm0
    3087:	48 8b 74 24 68       	mov    0x68(%rsp),%rsi
    308c:	c4 c1 7b 59 04 c6    	vmulsd (%r14,%rax,8),%xmm0,%xmm0
    3092:	c5 fb 58 06          	vaddsd (%rsi),%xmm0,%xmm0
    3096:	c5 fb 11 06          	vmovsd %xmm0,(%rsi)
    309a:	8b 74 24 60          	mov    0x60(%rsp),%esi
    309e:	39 f3                	cmp    %esi,%ebx
    30a0:	7e 2c                	jle    30ce <_ZGVcM4vvvvvvvvvvvv_matrix_vector_code_1D+0x43e>
    30a2:	8b 44 24 50          	mov    0x50(%rsp),%eax
    30a6:	03 bc 24 a4 00 00 00 	add    0xa4(%rsp),%edi
    30ad:	48 63 ff             	movslq %edi,%rdi
    30b0:	44 01 d0             	add    %r10d,%eax
    30b3:	c4 c1 7b 10 04 fe    	vmovsd (%r14,%rdi,8),%xmm0
    30b9:	48 98                	cltq   
    30bb:	c4 c1 7b 59 04 c7    	vmulsd (%r15,%rax,8),%xmm0,%xmm0
    30c1:	48 8b 44 24 58       	mov    0x58(%rsp),%rax
    30c6:	c5 fb 58 00          	vaddsd (%rax),%xmm0,%xmm0
    30ca:	c5 fb 11 00          	vmovsd %xmm0,(%rax)
    30ce:	49 83 c0 08          	add    $0x8,%r8
    30d2:	48 03 8c 24 90 00 00 	add    0x90(%rsp),%rcx
    30d9:	00 
    30da:	44 03 94 24 a0 00 00 	add    0xa0(%rsp),%r10d
    30e1:	00 
    30e2:	4c 3b 84 24 88 00 00 	cmp    0x88(%rsp),%r8
    30e9:	00 
    30ea:	0f 85 70 fe ff ff    	jne    2f60 <_ZGVcM4vvvvvvvvvvvv_matrix_vector_code_1D+0x2d0>
    30f0:	48 83 44 24 48 08    	addq   $0x8,0x48(%rsp)
    30f6:	8b 7c 24 40          	mov    0x40(%rsp),%edi
    30fa:	48 8b 44 24 48       	mov    0x48(%rsp),%rax
    30ff:	01 7c 24 44          	add    %edi,0x44(%rsp)
    3103:	48 3b 44 24 30       	cmp    0x30(%rsp),%rax
    3108:	0f 85 d2 fd ff ff    	jne    2ee0 <_ZGVcM4vvvvvvvvvvvv_matrix_vector_code_1D+0x250>
    310e:	48 83 44 24 10 04    	addq   $0x4,0x10(%rsp)
    3114:	48 8b 44 24 10       	mov    0x10(%rsp),%rax
    3119:	48 83 f8 10          	cmp    $0x10,%rax
    311d:	0f 85 73 fc ff ff    	jne    2d96 <_ZGVcM4vvvvvvvvvvvv_matrix_vector_code_1D+0x106>
    3123:	48 8b 84 24 b8 01 00 	mov    0x1b8(%rsp),%rax
    312a:	00 
    312b:	64 48 33 04 25 28 00 	xor    %fs:0x28,%rax
    3132:	00 00 
    3134:	75 54                	jne    318a <_ZGVcM4vvvvvvvvvvvv_matrix_vector_code_1D+0x4fa>
    3136:	c5 f8 77             	vzeroupper 
    3139:	48 8d 65 d8          	lea    -0x28(%rbp),%rsp
    313d:	5b                   	pop    %rbx
    313e:	41 5c                	pop    %r12
    3140:	41 5d                	pop    %r13
    3142:	41 5e                	pop    %r14
    3144:	41 5f                	pop    %r15
    3146:	5d                   	pop    %rbp
    3147:	c3                   	retq   
    3148:	0f 1f 84 00 00 00 00 	nopl   0x0(%rax,%rax,1)
    314f:	00 
    3150:	4b 8d 7c 1e e8       	lea    -0x18(%r14,%r11,1),%rdi
    3155:	4c 8b 5c 24 38       	mov    0x38(%rsp),%r11
    315a:	31 c0                	xor    %eax,%eax
    315c:	0f 1f 40 00          	nopl   0x0(%rax)
    3160:	c5 fb 10 44 c7 f8    	vmovsd -0x8(%rdi,%rax,8),%xmm0
    3166:	c5 fb 59 04 c1       	vmulsd (%rcx,%rax,8),%xmm0,%xmm0
    316b:	48 89 c6             	mov    %rax,%rsi
    316e:	c4 c1 7b 58 44 c1 f8 	vaddsd -0x8(%r9,%rax,8),%xmm0,%xmm0
    3175:	c4 c1 7b 11 44 c1 f8 	vmovsd %xmm0,-0x8(%r9,%rax,8)
    317c:	48 83 c0 01          	add    $0x1,%rax
    3180:	4c 39 de             	cmp    %r11,%rsi
    3183:	75 db                	jne    3160 <_ZGVcM4vvvvvvvvvvvv_matrix_vector_code_1D+0x4d0>
    3185:	e9 44 ff ff ff       	jmpq   30ce <_ZGVcM4vvvvvvvvvvvv_matrix_vector_code_1D+0x43e>
    318a:	c5 f8 77             	vzeroupper 
    318d:	e8 9e df ff ff       	callq  1130 <__stack_chk_fail@plt>
    3192:	66 66 2e 0f 1f 84 00 	data16 nopw %cs:0x0(%rax,%rax,1)
    3199:	00 00 00 00 
    319d:	0f 1f 00             	nopl   (%rax)

00000000000031a0 <_ZGVdN8vvvvvvvvvvvv_matrix_vector_code_1D>:
    31a0:	f3 0f 1e fa          	endbr64 
    31a4:	41 57                	push   %r15
    31a6:	41 56                	push   %r14
    31a8:	41 55                	push   %r13
    31aa:	41 54                	push   %r12
    31ac:	55                   	push   %rbp
    31ad:	53                   	push   %rbx
    31ae:	48 81 ec e8 02 00 00 	sub    $0x2e8,%rsp
    31b5:	64 48 8b 04 25 28 00 	mov    %fs:0x28,%rax
    31bc:	00 00 
    31be:	48 89 84 24 d8 02 00 	mov    %rax,0x2d8(%rsp)
    31c5:	00 
    31c6:	31 c0                	xor    %eax,%eax
    31c8:	48 8d 84 24 50 01 00 	lea    0x150(%rsp),%rax
    31cf:	00 
    31d0:	c5 f8 29 bc 24 10 02 	vmovaps %xmm7,0x210(%rsp)
    31d7:	00 00 
    31d9:	c4 e3 7d 39 bc 24 20 	vextracti128 $0x1,%ymm7,0x220(%rsp)
    31e0:	02 00 00 01 
    31e4:	c5 f9 6f bc 24 20 03 	vmovdqa 0x320(%rsp),%xmm7
    31eb:	00 00 
    31ed:	c5 f8 29 94 24 90 01 	vmovaps %xmm2,0x190(%rsp)
    31f4:	00 00 
    31f6:	c4 e3 7d 39 94 24 a0 	vextracti128 $0x1,%ymm2,0x1a0(%rsp)
    31fd:	01 00 00 01 
    3201:	c4 e3 7d 39 9c 24 c0 	vextracti128 $0x1,%ymm3,0x1c0(%rsp)
    3208:	01 00 00 01 
    320c:	c5 f9 6f 94 24 40 03 	vmovdqa 0x340(%rsp),%xmm2
    3213:	00 00 
    3215:	c5 f8 29 9c 24 b0 01 	vmovaps %xmm3,0x1b0(%rsp)
    321c:	00 00 
    321e:	c5 fd 6f 9c 24 40 03 	vmovdqa 0x340(%rsp),%ymm3
    3225:	00 00 
    3227:	c4 e3 7d 39 84 24 00 	vextracti128 $0x1,%ymm0,0x100(%rsp)
    322e:	01 00 00 01 
    3232:	c5 f8 29 bc 24 30 02 	vmovaps %xmm7,0x230(%rsp)
    3239:	00 00 
    323b:	c5 fd 6f bc 24 20 03 	vmovdqa 0x320(%rsp),%ymm7
    3242:	00 00 
    3244:	c4 e3 7d 39 8c 24 20 	vextracti128 $0x1,%ymm1,0x120(%rsp)
    324b:	01 00 00 01 
    324f:	c4 e3 7d 39 a4 24 e0 	vextracti128 $0x1,%ymm4,0x1e0(%rsp)
    3256:	01 00 00 01 
    325a:	c5 f8 29 94 24 50 01 	vmovaps %xmm2,0x150(%rsp)
    3261:	00 00 
    3263:	c4 e3 7d 39 ac 24 00 	vextracti128 $0x1,%ymm5,0x200(%rsp)
    326a:	02 00 00 01 
    326e:	c4 e3 7d 39 b4 24 40 	vextracti128 $0x1,%ymm6,0x140(%rsp)
    3275:	01 00 00 01 
    3279:	c4 e3 7d 39 bc 24 40 	vextracti128 $0x1,%ymm7,0x240(%rsp)
    3280:	02 00 00 01 
    3284:	c5 f8 29 84 24 f0 00 	vmovaps %xmm0,0xf0(%rsp)
    328b:	00 00 
    328d:	c5 f8 29 8c 24 10 01 	vmovaps %xmm1,0x110(%rsp)
    3294:	00 00 
    3296:	c5 f8 29 a4 24 d0 01 	vmovaps %xmm4,0x1d0(%rsp)
    329d:	00 00 
    329f:	c5 f8 29 ac 24 f0 01 	vmovaps %xmm5,0x1f0(%rsp)
    32a6:	00 00 
    32a8:	c5 f8 29 b4 24 30 01 	vmovaps %xmm6,0x130(%rsp)
    32af:	00 00 
    32b1:	c4 e3 7d 39 9c 24 60 	vextracti128 $0x1,%ymm3,0x160(%rsp)
    32b8:	01 00 00 01 
    32bc:	c5 f9 6f bc 24 80 03 	vmovdqa 0x380(%rsp),%xmm7
    32c3:	00 00 
    32c5:	c5 f9 6f 9c 24 a0 03 	vmovdqa 0x3a0(%rsp),%xmm3
    32cc:	00 00 
    32ce:	48 89 84 24 e0 00 00 	mov    %rax,0xe0(%rsp)
    32d5:	00 
    32d6:	48 8d 84 24 d0 01 00 	lea    0x1d0(%rsp),%rax
    32dd:	00 
    32de:	c5 fd 6f 94 24 80 03 	vmovdqa 0x380(%rsp),%ymm2
    32e5:	00 00 
    32e7:	48 89 84 24 c8 00 00 	mov    %rax,0xc8(%rsp)
    32ee:	00 
    32ef:	48 8d 84 24 90 02 00 	lea    0x290(%rsp),%rax
    32f6:	00 
    32f7:	48 89 84 24 e8 00 00 	mov    %rax,0xe8(%rsp)
    32fe:	00 
    32ff:	48 8d 84 24 10 02 00 	lea    0x210(%rsp),%rax
    3306:	00 
    3307:	c4 e3 7d 39 94 24 60 	vextracti128 $0x1,%ymm2,0x260(%rsp)
    330e:	02 00 00 01 
    3312:	c5 f9 6f 94 24 c0 03 	vmovdqa 0x3c0(%rsp),%xmm2
    3319:	00 00 
    331b:	48 89 84 24 b8 00 00 	mov    %rax,0xb8(%rsp)
    3322:	00 
    3323:	48 8d 84 24 30 01 00 	lea    0x130(%rsp),%rax
    332a:	00 
    332b:	48 89 84 24 c0 00 00 	mov    %rax,0xc0(%rsp)
    3332:	00 
    3333:	48 8d 84 24 70 01 00 	lea    0x170(%rsp),%rax
    333a:	00 
    333b:	48 89 84 24 b0 00 00 	mov    %rax,0xb0(%rsp)
    3342:	00 
    3343:	48 8d 84 24 90 01 00 	lea    0x190(%rsp),%rax
    334a:	00 
    334b:	48 89 84 24 d8 00 00 	mov    %rax,0xd8(%rsp)
    3352:	00 
    3353:	48 8d 84 24 50 02 00 	lea    0x250(%rsp),%rax
    335a:	00 
    335b:	c5 f8 29 bc 24 50 02 	vmovaps %xmm7,0x250(%rsp)
    3362:	00 00 
    3364:	c5 fd 6f bc 24 a0 03 	vmovdqa 0x3a0(%rsp),%ymm7
    336b:	00 00 
    336d:	48 89 84 24 a8 00 00 	mov    %rax,0xa8(%rsp)
    3374:	00 
    3375:	48 8d 84 24 f0 00 00 	lea    0xf0(%rsp),%rax
    337c:	00 
    337d:	c5 f8 29 9c 24 70 02 	vmovaps %xmm3,0x270(%rsp)
    3384:	00 00 
    3386:	c5 fd 6f 9c 24 c0 03 	vmovdqa 0x3c0(%rsp),%ymm3
    338d:	00 00 
    338f:	c4 e3 7d 39 bc 24 80 	vextracti128 $0x1,%ymm7,0x280(%rsp)
    3396:	02 00 00 01 
    339a:	c5 f9 6f bc 24 00 04 	vmovdqa 0x400(%rsp),%xmm7
    33a1:	00 00 
    33a3:	48 89 84 24 d0 00 00 	mov    %rax,0xd0(%rsp)
    33aa:	00 
    33ab:	48 8d 84 24 10 01 00 	lea    0x110(%rsp),%rax
    33b2:	00 
    33b3:	c4 e3 7d 39 9c 24 80 	vextracti128 $0x1,%ymm3,0x180(%rsp)
    33ba:	01 00 00 01 
    33be:	48 c7 84 24 98 00 00 	movq   $0x0,0x98(%rsp)
    33c5:	00 00 00 00 00 
    33ca:	c5 f9 6f 9c 24 20 04 	vmovdqa 0x420(%rsp),%xmm3
    33d1:	00 00 
    33d3:	48 89 84 24 a0 00 00 	mov    %rax,0xa0(%rsp)
    33da:	00 
    33db:	c5 f8 29 94 24 70 01 	vmovaps %xmm2,0x170(%rsp)
    33e2:	00 00 
    33e4:	c5 fd 6f 94 24 00 04 	vmovdqa 0x400(%rsp),%ymm2
    33eb:	00 00 
    33ed:	c5 f8 29 bc 24 90 02 	vmovaps %xmm7,0x290(%rsp)
    33f4:	00 00 
    33f6:	c5 fd 6f bc 24 20 04 	vmovdqa 0x420(%rsp),%ymm7
    33fd:	00 00 
    33ff:	c5 f8 29 9c 24 b0 02 	vmovaps %xmm3,0x2b0(%rsp)
    3406:	00 00 
    3408:	c4 e3 7d 39 94 24 a0 	vextracti128 $0x1,%ymm2,0x2a0(%rsp)
    340f:	02 00 00 01 
    3413:	c4 e3 7d 39 bc 24 c0 	vextracti128 $0x1,%ymm7,0x2c0(%rsp)
    341a:	02 00 00 01 
    341e:	48 8b 84 24 98 00 00 	mov    0x98(%rsp),%rax
    3425:	00 
    3426:	48 8b bc 24 e0 00 00 	mov    0xe0(%rsp),%rdi
    342d:	00 
    342e:	48 8b 94 24 d0 00 00 	mov    0xd0(%rsp),%rdx
    3435:	00 
    3436:	4c 8b b4 24 a0 00 00 	mov    0xa0(%rsp),%r14
    343d:	00 
    343e:	8b 34 07             	mov    (%rdi,%rax,1),%esi
    3441:	48 8b bc 24 c8 00 00 	mov    0xc8(%rsp),%rdi
    3448:	00 
    3449:	48 63 14 02          	movslq (%rdx,%rax,1),%rdx
    344d:	45 8b 34 06          	mov    (%r14,%rax,1),%r14d
    3451:	4c 8b 3c 47          	mov    (%rdi,%rax,2),%r15
    3455:	48 8b bc 24 e8 00 00 	mov    0xe8(%rsp),%rdi
    345c:	00 
    345d:	4c 8b 14 47          	mov    (%rdi,%rax,2),%r10
    3461:	48 8b bc 24 b8 00 00 	mov    0xb8(%rsp),%rdi
    3468:	00 
    3469:	4c 8b 24 47          	mov    (%rdi,%rax,2),%r12
    346d:	48 8b bc 24 c0 00 00 	mov    0xc0(%rsp),%rdi
    3474:	00 
    3475:	4c 89 54 24 78       	mov    %r10,0x78(%rsp)
    347a:	8b 1c 07             	mov    (%rdi,%rax,1),%ebx
    347d:	48 8b bc 24 b0 00 00 	mov    0xb0(%rsp),%rdi
    3484:	00 
    3485:	8b 0c 07             	mov    (%rdi,%rax,1),%ecx
    3488:	48 8b bc 24 d8 00 00 	mov    0xd8(%rsp),%rdi
    348f:	00 
    3490:	89 5c 24 14          	mov    %ebx,0x14(%rsp)
    3494:	48 8b 3c 47          	mov    (%rdi,%rax,2),%rdi
    3498:	48 89 7c 24 70       	mov    %rdi,0x70(%rsp)
    349d:	48 8b bc 24 a8 00 00 	mov    0xa8(%rsp),%rdi
    34a4:	00 
    34a5:	48 8b 3c 47          	mov    (%rdi,%rax,2),%rdi
    34a9:	85 f6                	test   %esi,%esi
    34ab:	0f 8e cf 02 00 00    	jle    3780 <_ZGVdN8vvvvvvvvvvvv_matrix_vector_code_1D+0x5e0>
    34b1:	89 d0                	mov    %edx,%eax
    34b3:	48 c1 e2 02          	shl    $0x2,%rdx
    34b7:	41 0f af c6          	imul   %r14d,%eax
    34bb:	48 89 54 24 08       	mov    %rdx,0x8(%rsp)
    34c0:	85 c9                	test   %ecx,%ecx
    34c2:	0f 8e b8 02 00 00    	jle    3780 <_ZGVdN8vvvvvvvvvvvv_matrix_vector_code_1D+0x5e0>
    34c8:	45 85 f6             	test   %r14d,%r14d
    34cb:	0f 8e af 02 00 00    	jle    3780 <_ZGVdN8vvvvvvvvvvvv_matrix_vector_code_1D+0x5e0>
    34d1:	89 da                	mov    %ebx,%edx
    34d3:	48 89 7c 24 60       	mov    %rdi,0x60(%rsp)
    34d8:	c7 84 24 80 00 00 00 	movl   $0x0,0x80(%rsp)
    34df:	00 00 00 00 
    34e3:	0f af d1             	imul   %ecx,%edx
    34e6:	89 94 24 84 00 00 00 	mov    %edx,0x84(%rsp)
    34ed:	8d 56 ff             	lea    -0x1(%rsi),%edx
    34f0:	48 8d 7c d7 08       	lea    0x8(%rdi,%rdx,8),%rdi
    34f5:	48 63 d3             	movslq %ebx,%rdx
    34f8:	48 89 bc 24 88 00 00 	mov    %rdi,0x88(%rsp)
    34ff:	00 
    3500:	48 8d 3c d5 00 00 00 	lea    0x0(,%rdx,8),%rdi
    3507:	00 
    3508:	8d 51 ff             	lea    -0x1(%rcx),%edx
    350b:	48 89 7c 24 18       	mov    %rdi,0x18(%rsp)
    3510:	49 8d 7c d2 08       	lea    0x8(%r10,%rdx,8),%rdi
    3515:	44 89 f2             	mov    %r14d,%edx
    3518:	48 89 7c 24 20       	mov    %rdi,0x20(%rsp)
    351d:	44 89 f7             	mov    %r14d,%edi
    3520:	c1 ea 02             	shr    $0x2,%edx
    3523:	83 e7 fc             	and    $0xfffffffc,%edi
    3526:	48 c1 e2 05          	shl    $0x5,%rdx
    352a:	8d 1c 38             	lea    (%rax,%rdi,1),%ebx
    352d:	89 7c 24 2c          	mov    %edi,0x2c(%rsp)
    3531:	49 89 d5             	mov    %rdx,%r13
    3534:	89 5c 24 50          	mov    %ebx,0x50(%rsp)
    3538:	8d 5f ff             	lea    -0x1(%rdi),%ebx
    353b:	89 5c 24 34          	mov    %ebx,0x34(%rsp)
    353f:	8d 5f 01             	lea    0x1(%rdi),%ebx
    3542:	83 c7 02             	add    $0x2,%edi
    3545:	89 7c 24 58          	mov    %edi,0x58(%rsp)
    3549:	01 c7                	add    %eax,%edi
    354b:	89 5c 24 30          	mov    %ebx,0x30(%rsp)
    354f:	01 c3                	add    %eax,%ebx
    3551:	48 98                	cltq   
    3553:	89 7c 24 5c          	mov    %edi,0x5c(%rsp)
    3557:	41 8d 7e ff          	lea    -0x1(%r14),%edi
    355b:	48 89 84 24 90 00 00 	mov    %rax,0x90(%rsp)
    3562:	00 
    3563:	89 f8                	mov    %edi,%eax
    3565:	89 5c 24 54          	mov    %ebx,0x54(%rsp)
    3569:	89 7c 24 28          	mov    %edi,0x28(%rsp)
    356d:	48 89 44 24 68       	mov    %rax,0x68(%rsp)
    3572:	66 0f 1f 44 00 00    	nopw   0x0(%rax,%rax,1)
    3578:	48 63 84 24 80 00 00 	movslq 0x80(%rsp),%rax
    357f:	00 
    3580:	48 8b 7c 24 08       	mov    0x8(%rsp),%rdi
    3585:	4c 8b 44 24 70       	mov    0x70(%rsp),%r8
    358a:	49 89 c2             	mov    %rax,%r10
    358d:	48 03 84 24 90 00 00 	add    0x90(%rsp),%rax
    3594:	00 
    3595:	49 8d 0c c4          	lea    (%r12,%rax,8),%rcx
    3599:	48 8b 44 24 60       	mov    0x60(%rsp),%rax
    359e:	48 8b 00             	mov    (%rax),%rax
    35a1:	48 63 04 38          	movslq (%rax,%rdi,1),%rax
    35a5:	8b 7c 24 34          	mov    0x34(%rsp),%edi
    35a9:	01 c7                	add    %eax,%edi
    35ab:	49 8d 5c c0 18       	lea    0x18(%r8,%rax,8),%rbx
    35b0:	49 8d 54 c0 f8       	lea    -0x8(%r8,%rax,8),%rdx
    35b5:	48 89 c6             	mov    %rax,%rsi
    35b8:	48 63 ff             	movslq %edi,%rdi
    35bb:	03 74 24 30          	add    0x30(%rsp),%esi
    35bf:	4d 8d 0c c0          	lea    (%r8,%rax,8),%r9
    35c3:	48 89 dd             	mov    %rbx,%rbp
    35c6:	49 8d 3c f8          	lea    (%r8,%rdi,8),%rdi
    35ca:	48 63 f6             	movslq %esi,%rsi
    35cd:	48 89 7c 24 38       	mov    %rdi,0x38(%rsp)
    35d2:	8b 7c 24 2c          	mov    0x2c(%rsp),%edi
    35d6:	01 c7                	add    %eax,%edi
    35d8:	48 63 ff             	movslq %edi,%rdi
    35db:	49 8d 3c f8          	lea    (%r8,%rdi,8),%rdi
    35df:	48 89 7c 24 40       	mov    %rdi,0x40(%rsp)
    35e4:	49 8d 3c f0          	lea    (%r8,%rsi,8),%rdi
    35e8:	4c 8b 44 24 78       	mov    0x78(%rsp),%r8
    35ed:	48 89 7c 24 48       	mov    %rdi,0x48(%rsp)
    35f2:	66 0f 1f 44 00 00    	nopw   0x0(%rax,%rax,1)
    35f8:	48 8b 5c 24 08       	mov    0x8(%rsp),%rbx
    35fd:	49 8b 00             	mov    (%r8),%rax
    3600:	48 63 04 18          	movslq (%rax,%rbx,1),%rax
    3604:	48 89 c7             	mov    %rax,%rdi
    3607:	49 8d 74 c7 f8       	lea    -0x8(%r15,%rax,8),%rsi
    360c:	4c 8d 1c c5 18 00 00 	lea    0x18(,%rax,8),%r11
    3613:	00 
    3614:	48 8d 41 20          	lea    0x20(%rcx),%rax
    3618:	48 39 c2             	cmp    %rax,%rdx
    361b:	0f 93 c3             	setae  %bl
    361e:	48 39 e9             	cmp    %rbp,%rcx
    3621:	0f 93 c0             	setae  %al
    3624:	09 d8                	or     %ebx,%eax
    3626:	83 7c 24 28 02       	cmpl   $0x2,0x28(%rsp)
    362b:	0f 97 c3             	seta   %bl
    362e:	84 d8                	test   %bl,%al
    3630:	0f 84 8a 01 00 00    	je     37c0 <_ZGVdN8vvvvvvvvvvvv_matrix_vector_code_1D+0x620>
    3636:	4b 8d 04 1f          	lea    (%r15,%r11,1),%rax
    363a:	48 39 c2             	cmp    %rax,%rdx
    363d:	0f 93 04 24          	setae  (%rsp)
    3641:	48 39 ee             	cmp    %rbp,%rsi
    3644:	0f b6 04 24          	movzbl (%rsp),%eax
    3648:	0f 93 c3             	setae  %bl
    364b:	48 c7 04 24 00 00 00 	movq   $0x0,(%rsp)
    3652:	00 
    3653:	08 d8                	or     %bl,%al
    3655:	0f 84 65 01 00 00    	je     37c0 <_ZGVdN8vvvvvvvvvvvv_matrix_vector_code_1D+0x620>
    365b:	31 c0                	xor    %eax,%eax
    365d:	0f 1f 00             	nopl   (%rax)
    3660:	c5 f9 10 24 01       	vmovupd (%rcx,%rax,1),%xmm4
    3665:	c5 f9 10 2c 06       	vmovupd (%rsi,%rax,1),%xmm5
    366a:	c4 e3 5d 18 44 01 10 	vinsertf128 $0x1,0x10(%rcx,%rax,1),%ymm4,%ymm0
    3671:	01 
    3672:	c4 e3 55 18 4c 06 10 	vinsertf128 $0x1,0x10(%rsi,%rax,1),%ymm5,%ymm1
    3679:	01 
    367a:	c5 f9 10 34 02       	vmovupd (%rdx,%rax,1),%xmm6
    367f:	c5 fd 59 c1          	vmulpd %ymm1,%ymm0,%ymm0
    3683:	c4 e3 4d 18 4c 02 10 	vinsertf128 $0x1,0x10(%rdx,%rax,1),%ymm6,%ymm1
    368a:	01 
    368b:	c5 fd 58 c1          	vaddpd %ymm1,%ymm0,%ymm0
    368f:	c5 f8 11 04 02       	vmovups %xmm0,(%rdx,%rax,1)
    3694:	c4 e3 7d 19 44 02 10 	vextractf128 $0x1,%ymm0,0x10(%rdx,%rax,1)
    369b:	01 
    369c:	48 83 c0 20          	add    $0x20,%rax
    36a0:	4c 39 e8             	cmp    %r13,%rax
    36a3:	75 bb                	jne    3660 <_ZGVdN8vvvvvvvvvvvv_matrix_vector_code_1D+0x4c0>
    36a5:	8b 5c 24 2c          	mov    0x2c(%rsp),%ebx
    36a9:	41 39 de             	cmp    %ebx,%r14d
    36ac:	0f 84 8e 00 00 00    	je     3740 <_ZGVdN8vvvvvvvvvvvv_matrix_vector_code_1D+0x5a0>
    36b2:	8b 44 24 50          	mov    0x50(%rsp),%eax
    36b6:	44 8b 5c 24 30       	mov    0x30(%rsp),%r11d
    36bb:	42 8d 34 10          	lea    (%rax,%r10,1),%esi
    36bf:	8b 44 24 34          	mov    0x34(%rsp),%eax
    36c3:	48 63 f6             	movslq %esi,%rsi
    36c6:	01 f8                	add    %edi,%eax
    36c8:	c4 c1 7b 10 04 f4    	vmovsd (%r12,%rsi,8),%xmm0
    36ce:	48 98                	cltq   
    36d0:	c4 c1 7b 59 04 c7    	vmulsd (%r15,%rax,8),%xmm0,%xmm0
    36d6:	48 8b 44 24 38       	mov    0x38(%rsp),%rax
    36db:	c5 fb 58 00          	vaddsd (%rax),%xmm0,%xmm0
    36df:	c5 fb 11 00          	vmovsd %xmm0,(%rax)
    36e3:	45 39 de             	cmp    %r11d,%r14d
    36e6:	7e 58                	jle    3740 <_ZGVdN8vvvvvvvvvvvv_matrix_vector_code_1D+0x5a0>
    36e8:	8b 44 24 54          	mov    0x54(%rsp),%eax
    36ec:	42 8d 34 10          	lea    (%rax,%r10,1),%esi
    36f0:	8d 04 1f             	lea    (%rdi,%rbx,1),%eax
    36f3:	48 98                	cltq   
    36f5:	48 63 f6             	movslq %esi,%rsi
    36f8:	c4 c1 7b 10 04 f4    	vmovsd (%r12,%rsi,8),%xmm0
    36fe:	c4 c1 7b 59 04 c7    	vmulsd (%r15,%rax,8),%xmm0,%xmm0
    3704:	48 8b 44 24 40       	mov    0x40(%rsp),%rax
    3709:	c5 fb 58 00          	vaddsd (%rax),%xmm0,%xmm0
    370d:	c5 fb 11 00          	vmovsd %xmm0,(%rax)
    3711:	44 3b 74 24 58       	cmp    0x58(%rsp),%r14d
    3716:	7e 28                	jle    3740 <_ZGVdN8vvvvvvvvvvvv_matrix_vector_code_1D+0x5a0>
    3718:	8b 44 24 5c          	mov    0x5c(%rsp),%eax
    371c:	44 01 df             	add    %r11d,%edi
    371f:	48 63 ff             	movslq %edi,%rdi
    3722:	44 01 d0             	add    %r10d,%eax
    3725:	48 98                	cltq   
    3727:	c4 c1 7b 10 04 c4    	vmovsd (%r12,%rax,8),%xmm0
    372d:	48 8b 44 24 48       	mov    0x48(%rsp),%rax
    3732:	c4 c1 7b 59 04 ff    	vmulsd (%r15,%rdi,8),%xmm0,%xmm0
    3738:	c5 fb 58 00          	vaddsd (%rax),%xmm0,%xmm0
    373c:	c5 fb 11 00          	vmovsd %xmm0,(%rax)
    3740:	49 83 c0 08          	add    $0x8,%r8
    3744:	48 03 4c 24 18       	add    0x18(%rsp),%rcx
    3749:	44 03 54 24 14       	add    0x14(%rsp),%r10d
    374e:	4c 3b 44 24 20       	cmp    0x20(%rsp),%r8
    3753:	0f 85 9f fe ff ff    	jne    35f8 <_ZGVdN8vvvvvvvvvvvv_matrix_vector_code_1D+0x458>
    3759:	48 83 44 24 60 08    	addq   $0x8,0x60(%rsp)
    375f:	8b bc 24 84 00 00 00 	mov    0x84(%rsp),%edi
    3766:	48 8b 44 24 60       	mov    0x60(%rsp),%rax
    376b:	01 bc 24 80 00 00 00 	add    %edi,0x80(%rsp)
    3772:	48 3b 84 24 88 00 00 	cmp    0x88(%rsp),%rax
    3779:	00 
    377a:	0f 85 f8 fd ff ff    	jne    3578 <_ZGVdN8vvvvvvvvvvvv_matrix_vector_code_1D+0x3d8>
    3780:	48 83 84 24 98 00 00 	addq   $0x4,0x98(%rsp)
    3787:	00 04 
    3789:	48 8b 84 24 98 00 00 	mov    0x98(%rsp),%rax
    3790:	00 
    3791:	48 83 f8 20          	cmp    $0x20,%rax
    3795:	0f 85 83 fc ff ff    	jne    341e <_ZGVdN8vvvvvvvvvvvv_matrix_vector_code_1D+0x27e>
    379b:	48 8b 84 24 d8 02 00 	mov    0x2d8(%rsp),%rax
    37a2:	00 
    37a3:	64 48 33 04 25 28 00 	xor    %fs:0x28,%rax
    37aa:	00 00 
    37ac:	75 4c                	jne    37fa <_ZGVdN8vvvvvvvvvvvv_matrix_vector_code_1D+0x65a>
    37ae:	48 81 c4 e8 02 00 00 	add    $0x2e8,%rsp
    37b5:	5b                   	pop    %rbx
    37b6:	5d                   	pop    %rbp
    37b7:	41 5c                	pop    %r12
    37b9:	41 5d                	pop    %r13
    37bb:	41 5e                	pop    %r14
    37bd:	41 5f                	pop    %r15
    37bf:	c3                   	retq   
    37c0:	4b 8d 7c 1f e8       	lea    -0x18(%r15,%r11,1),%rdi
    37c5:	4c 8b 5c 24 68       	mov    0x68(%rsp),%r11
    37ca:	31 c0                	xor    %eax,%eax
    37cc:	0f 1f 40 00          	nopl   0x0(%rax)
    37d0:	c5 fb 10 44 c7 f8    	vmovsd -0x8(%rdi,%rax,8),%xmm0
    37d6:	c5 fb 59 04 c1       	vmulsd (%rcx,%rax,8),%xmm0,%xmm0
    37db:	48 89 c6             	mov    %rax,%rsi
    37de:	c4 c1 7b 58 44 c1 f8 	vaddsd -0x8(%r9,%rax,8),%xmm0,%xmm0
    37e5:	c4 c1 7b 11 44 c1 f8 	vmovsd %xmm0,-0x8(%r9,%rax,8)
    37ec:	48 83 c0 01          	add    $0x1,%rax
    37f0:	4c 39 de             	cmp    %r11,%rsi
    37f3:	75 db                	jne    37d0 <_ZGVdN8vvvvvvvvvvvv_matrix_vector_code_1D+0x630>
    37f5:	e9 46 ff ff ff       	jmpq   3740 <_ZGVdN8vvvvvvvvvvvv_matrix_vector_code_1D+0x5a0>
    37fa:	c5 f8 77             	vzeroupper 
    37fd:	e8 2e d9 ff ff       	callq  1130 <__stack_chk_fail@plt>
    3802:	66 66 2e 0f 1f 84 00 	data16 nopw %cs:0x0(%rax,%rax,1)
    3809:	00 00 00 00 
    380d:	0f 1f 00             	nopl   (%rax)

0000000000003810 <_ZGVdM8vvvvvvvvvvvv_matrix_vector_code_1D>:
    3810:	f3 0f 1e fa          	endbr64 
    3814:	41 57                	push   %r15
    3816:	41 56                	push   %r14
    3818:	41 55                	push   %r13
    381a:	41 54                	push   %r12
    381c:	55                   	push   %rbp
    381d:	53                   	push   %rbx
    381e:	48 81 ec c8 02 00 00 	sub    $0x2c8,%rsp
    3825:	64 48 8b 04 25 28 00 	mov    %fs:0x28,%rax
    382c:	00 00 
    382e:	48 89 84 24 b8 02 00 	mov    %rax,0x2b8(%rsp)
    3835:	00 
    3836:	31 c0                	xor    %eax,%eax
    3838:	48 8d 84 24 50 01 00 	lea    0x150(%rsp),%rax
    383f:	00 
    3840:	c5 f8 29 bc 24 f0 01 	vmovaps %xmm7,0x1f0(%rsp)
    3847:	00 00 
    3849:	c4 e3 7d 39 bc 24 00 	vextracti128 $0x1,%ymm7,0x200(%rsp)
    3850:	02 00 00 01 
    3854:	c5 f9 6f bc 24 00 03 	vmovdqa 0x300(%rsp),%xmm7
    385b:	00 00 
    385d:	c5 f8 29 94 24 70 01 	vmovaps %xmm2,0x170(%rsp)
    3864:	00 00 
    3866:	c4 e3 7d 39 94 24 80 	vextracti128 $0x1,%ymm2,0x180(%rsp)
    386d:	01 00 00 01 
    3871:	c4 e3 7d 39 9c 24 a0 	vextracti128 $0x1,%ymm3,0x1a0(%rsp)
    3878:	01 00 00 01 
    387c:	c5 f9 6f 94 24 20 03 	vmovdqa 0x320(%rsp),%xmm2
    3883:	00 00 
    3885:	c5 f8 29 9c 24 90 01 	vmovaps %xmm3,0x190(%rsp)
    388c:	00 00 
    388e:	c5 fd 6f 9c 24 20 03 	vmovdqa 0x320(%rsp),%ymm3
    3895:	00 00 
    3897:	c4 e3 7d 39 84 24 c0 	vextracti128 $0x1,%ymm0,0xc0(%rsp)
    389e:	00 00 00 01 
    38a2:	c5 f8 29 bc 24 10 02 	vmovaps %xmm7,0x210(%rsp)
    38a9:	00 00 
    38ab:	c5 fd 6f bc 24 00 03 	vmovdqa 0x300(%rsp),%ymm7
    38b2:	00 00 
    38b4:	c4 e3 7d 39 8c 24 e0 	vextracti128 $0x1,%ymm1,0xe0(%rsp)
    38bb:	00 00 00 01 
    38bf:	c4 e3 7d 39 a4 24 c0 	vextracti128 $0x1,%ymm4,0x1c0(%rsp)
    38c6:	01 00 00 01 
    38ca:	c5 f8 29 94 24 10 01 	vmovaps %xmm2,0x110(%rsp)
    38d1:	00 00 
    38d3:	c4 e3 7d 39 ac 24 e0 	vextracti128 $0x1,%ymm5,0x1e0(%rsp)
    38da:	01 00 00 01 
    38de:	c4 e3 7d 39 b4 24 00 	vextracti128 $0x1,%ymm6,0x100(%rsp)
    38e5:	01 00 00 01 
    38e9:	c4 e3 7d 39 bc 24 20 	vextracti128 $0x1,%ymm7,0x220(%rsp)
    38f0:	02 00 00 01 
    38f4:	c5 f8 29 84 24 b0 00 	vmovaps %xmm0,0xb0(%rsp)
    38fb:	00 00 
    38fd:	c5 f8 29 8c 24 d0 00 	vmovaps %xmm1,0xd0(%rsp)
    3904:	00 00 
    3906:	c5 f8 29 a4 24 b0 01 	vmovaps %xmm4,0x1b0(%rsp)
    390d:	00 00 
    390f:	c5 f8 29 ac 24 d0 01 	vmovaps %xmm5,0x1d0(%rsp)
    3916:	00 00 
    3918:	c5 f8 29 b4 24 f0 00 	vmovaps %xmm6,0xf0(%rsp)
    391f:	00 00 
    3921:	c4 e3 7d 39 9c 24 20 	vextracti128 $0x1,%ymm3,0x120(%rsp)
    3928:	01 00 00 01 
    392c:	c5 fd 6f 94 24 60 03 	vmovdqa 0x360(%rsp),%ymm2
    3933:	00 00 
    3935:	c5 f9 6f bc 24 60 03 	vmovdqa 0x360(%rsp),%xmm7
    393c:	00 00 
    393e:	c5 f9 6f 9c 24 80 03 	vmovdqa 0x380(%rsp),%xmm3
    3945:	00 00 
    3947:	48 89 84 24 a8 00 00 	mov    %rax,0xa8(%rsp)
    394e:	00 
    394f:	c4 e3 7d 39 94 24 40 	vextracti128 $0x1,%ymm2,0x240(%rsp)
    3956:	02 00 00 01 
    395a:	c5 f9 6f 94 24 a0 03 	vmovdqa 0x3a0(%rsp),%xmm2
    3961:	00 00 
    3963:	c5 f8 29 bc 24 30 02 	vmovaps %xmm7,0x230(%rsp)
    396a:	00 00 
    396c:	c5 fd 6f bc 24 80 03 	vmovdqa 0x380(%rsp),%ymm7
    3973:	00 00 
    3975:	c5 f8 29 9c 24 50 02 	vmovaps %xmm3,0x250(%rsp)
    397c:	00 00 
    397e:	c5 fd 6f 9c 24 a0 03 	vmovdqa 0x3a0(%rsp),%ymm3
    3985:	00 00 
    3987:	c5 f8 29 94 24 30 01 	vmovaps %xmm2,0x130(%rsp)
    398e:	00 00 
    3990:	c5 fd 6f 94 24 e0 03 	vmovdqa 0x3e0(%rsp),%ymm2
    3997:	00 00 
    3999:	c4 e3 7d 39 bc 24 60 	vextracti128 $0x1,%ymm7,0x260(%rsp)
    39a0:	02 00 00 01 
    39a4:	c5 f9 6f bc 24 e0 03 	vmovdqa 0x3e0(%rsp),%xmm7
    39ab:	00 00 
    39ad:	c4 e3 7d 39 9c 24 40 	vextracti128 $0x1,%ymm3,0x140(%rsp)
    39b4:	01 00 00 01 
    39b8:	c5 f9 6f 9c 24 00 04 	vmovdqa 0x400(%rsp),%xmm3
    39bf:	00 00 
    39c1:	48 c7 84 24 a0 00 00 	movq   $0x0,0xa0(%rsp)
    39c8:	00 00 00 00 00 
    39cd:	c4 e3 7d 39 94 24 80 	vextracti128 $0x1,%ymm2,0x280(%rsp)
    39d4:	02 00 00 01 
    39d8:	c5 f9 6f 94 24 20 04 	vmovdqa 0x420(%rsp),%xmm2
    39df:	00 00 
    39e1:	c5 f8 29 bc 24 70 02 	vmovaps %xmm7,0x270(%rsp)
    39e8:	00 00 
    39ea:	c5 fd 6f bc 24 00 04 	vmovdqa 0x400(%rsp),%ymm7
    39f1:	00 00 
    39f3:	c5 f8 29 9c 24 90 02 	vmovaps %xmm3,0x290(%rsp)
    39fa:	00 00 
    39fc:	c5 fd 6f 9c 24 20 04 	vmovdqa 0x420(%rsp),%ymm3
    3a03:	00 00 
    3a05:	c5 f8 29 94 24 50 01 	vmovaps %xmm2,0x150(%rsp)
    3a0c:	00 00 
    3a0e:	c4 e3 7d 39 bc 24 a0 	vextracti128 $0x1,%ymm7,0x2a0(%rsp)
    3a15:	02 00 00 01 
    3a19:	c4 e3 7d 39 9c 24 60 	vextracti128 $0x1,%ymm3,0x160(%rsp)
    3a20:	01 00 00 01 
    3a24:	48 8b bc 24 a8 00 00 	mov    0xa8(%rsp),%rdi
    3a2b:	00 
    3a2c:	48 8b 84 24 a0 00 00 	mov    0xa0(%rsp),%rax
    3a33:	00 
    3a34:	8b 14 07             	mov    (%rdi,%rax,1),%edx
    3a37:	85 d2                	test   %edx,%edx
    3a39:	0f 84 2b 03 00 00    	je     3d6a <_ZGVdM8vvvvvvvvvvvv_matrix_vector_code_1D+0x55a>
    3a3f:	8b b4 04 10 01 00 00 	mov    0x110(%rsp,%rax,1),%esi
    3a46:	85 f6                	test   %esi,%esi
    3a48:	0f 8e 1c 03 00 00    	jle    3d6a <_ZGVdM8vvvvvvvvvvvv_matrix_vector_code_1D+0x55a>
    3a4e:	48 8b bc 44 70 01 00 	mov    0x170(%rsp,%rax,2),%rdi
    3a55:	00 
    3a56:	48 63 94 04 b0 00 00 	movslq 0xb0(%rsp,%rax,1),%rdx
    3a5d:	00 
    3a5e:	4c 8b 94 44 70 02 00 	mov    0x270(%rsp,%rax,2),%r10
    3a65:	00 
    3a66:	8b 9c 04 f0 00 00 00 	mov    0xf0(%rsp,%rax,1),%ebx
    3a6d:	44 8b b4 04 d0 00 00 	mov    0xd0(%rsp,%rax,1),%r14d
    3a74:	00 
    3a75:	8b 8c 04 30 01 00 00 	mov    0x130(%rsp,%rax,1),%ecx
    3a7c:	48 89 bc 24 88 00 00 	mov    %rdi,0x88(%rsp)
    3a83:	00 
    3a84:	4c 8b bc 44 b0 01 00 	mov    0x1b0(%rsp,%rax,2),%r15
    3a8b:	00 
    3a8c:	4c 8b a4 44 f0 01 00 	mov    0x1f0(%rsp,%rax,2),%r12
    3a93:	00 
    3a94:	89 5c 24 1c          	mov    %ebx,0x1c(%rsp)
    3a98:	48 8b bc 44 30 02 00 	mov    0x230(%rsp,%rax,2),%rdi
    3a9f:	00 
    3aa0:	89 d0                	mov    %edx,%eax
    3aa2:	48 c1 e2 02          	shl    $0x2,%rdx
    3aa6:	4c 89 94 24 90 00 00 	mov    %r10,0x90(%rsp)
    3aad:	00 
    3aae:	41 0f af c6          	imul   %r14d,%eax
    3ab2:	48 89 54 24 10       	mov    %rdx,0x10(%rsp)
    3ab7:	85 c9                	test   %ecx,%ecx
    3ab9:	0f 8e ab 02 00 00    	jle    3d6a <_ZGVdM8vvvvvvvvvvvv_matrix_vector_code_1D+0x55a>
    3abf:	45 85 f6             	test   %r14d,%r14d
    3ac2:	0f 8e a2 02 00 00    	jle    3d6a <_ZGVdM8vvvvvvvvvvvv_matrix_vector_code_1D+0x55a>
    3ac8:	89 da                	mov    %ebx,%edx
    3aca:	48 89 7c 24 68       	mov    %rdi,0x68(%rsp)
    3acf:	0f af d1             	imul   %ecx,%edx
    3ad2:	c7 44 24 78 00 00 00 	movl   $0x0,0x78(%rsp)
    3ad9:	00 
    3ada:	89 54 24 7c          	mov    %edx,0x7c(%rsp)
    3ade:	8d 56 ff             	lea    -0x1(%rsi),%edx
    3ae1:	48 8d 7c d7 08       	lea    0x8(%rdi,%rdx,8),%rdi
    3ae6:	48 63 d3             	movslq %ebx,%rdx
    3ae9:	48 89 bc 24 80 00 00 	mov    %rdi,0x80(%rsp)
    3af0:	00 
    3af1:	48 8d 3c d5 00 00 00 	lea    0x0(,%rdx,8),%rdi
    3af8:	00 
    3af9:	8d 51 ff             	lea    -0x1(%rcx),%edx
    3afc:	48 89 7c 24 20       	mov    %rdi,0x20(%rsp)
    3b01:	49 8d 7c d2 08       	lea    0x8(%r10,%rdx,8),%rdi
    3b06:	44 89 f2             	mov    %r14d,%edx
    3b09:	48 89 7c 24 28       	mov    %rdi,0x28(%rsp)
    3b0e:	44 89 f7             	mov    %r14d,%edi
    3b11:	c1 ea 02             	shr    $0x2,%edx
    3b14:	83 e7 fc             	and    $0xfffffffc,%edi
    3b17:	48 c1 e2 05          	shl    $0x5,%rdx
    3b1b:	8d 1c 38             	lea    (%rax,%rdi,1),%ebx
    3b1e:	89 7c 24 34          	mov    %edi,0x34(%rsp)
    3b22:	49 89 d5             	mov    %rdx,%r13
    3b25:	89 5c 24 58          	mov    %ebx,0x58(%rsp)
    3b29:	8d 5f ff             	lea    -0x1(%rdi),%ebx
    3b2c:	89 5c 24 3c          	mov    %ebx,0x3c(%rsp)
    3b30:	8d 5f 01             	lea    0x1(%rdi),%ebx
    3b33:	83 c7 02             	add    $0x2,%edi
    3b36:	89 7c 24 60          	mov    %edi,0x60(%rsp)
    3b3a:	01 c7                	add    %eax,%edi
    3b3c:	89 5c 24 38          	mov    %ebx,0x38(%rsp)
    3b40:	01 c3                	add    %eax,%ebx
    3b42:	48 98                	cltq   
    3b44:	89 7c 24 64          	mov    %edi,0x64(%rsp)
    3b48:	41 8d 7e ff          	lea    -0x1(%r14),%edi
    3b4c:	48 89 84 24 98 00 00 	mov    %rax,0x98(%rsp)
    3b53:	00 
    3b54:	89 f8                	mov    %edi,%eax
    3b56:	89 5c 24 5c          	mov    %ebx,0x5c(%rsp)
    3b5a:	89 7c 24 30          	mov    %edi,0x30(%rsp)
    3b5e:	48 89 44 24 70       	mov    %rax,0x70(%rsp)
    3b63:	0f 1f 44 00 00       	nopl   0x0(%rax,%rax,1)
    3b68:	48 63 44 24 78       	movslq 0x78(%rsp),%rax
    3b6d:	48 8b 7c 24 10       	mov    0x10(%rsp),%rdi
    3b72:	4c 8b 84 24 88 00 00 	mov    0x88(%rsp),%r8
    3b79:	00 
    3b7a:	49 89 c2             	mov    %rax,%r10
    3b7d:	48 03 84 24 98 00 00 	add    0x98(%rsp),%rax
    3b84:	00 
    3b85:	49 8d 0c c4          	lea    (%r12,%rax,8),%rcx
    3b89:	48 8b 44 24 68       	mov    0x68(%rsp),%rax
    3b8e:	48 8b 00             	mov    (%rax),%rax
    3b91:	48 63 04 38          	movslq (%rax,%rdi,1),%rax
    3b95:	8b 7c 24 3c          	mov    0x3c(%rsp),%edi
    3b99:	01 c7                	add    %eax,%edi
    3b9b:	49 8d 5c c0 18       	lea    0x18(%r8,%rax,8),%rbx
    3ba0:	49 8d 54 c0 f8       	lea    -0x8(%r8,%rax,8),%rdx
    3ba5:	48 89 c6             	mov    %rax,%rsi
    3ba8:	48 63 ff             	movslq %edi,%rdi
    3bab:	03 74 24 38          	add    0x38(%rsp),%esi
    3baf:	4d 8d 0c c0          	lea    (%r8,%rax,8),%r9
    3bb3:	48 89 dd             	mov    %rbx,%rbp
    3bb6:	49 8d 3c f8          	lea    (%r8,%rdi,8),%rdi
    3bba:	48 63 f6             	movslq %esi,%rsi
    3bbd:	48 89 7c 24 40       	mov    %rdi,0x40(%rsp)
    3bc2:	8b 7c 24 34          	mov    0x34(%rsp),%edi
    3bc6:	01 c7                	add    %eax,%edi
    3bc8:	48 63 ff             	movslq %edi,%rdi
    3bcb:	49 8d 3c f8          	lea    (%r8,%rdi,8),%rdi
    3bcf:	48 89 7c 24 48       	mov    %rdi,0x48(%rsp)
    3bd4:	49 8d 3c f0          	lea    (%r8,%rsi,8),%rdi
    3bd8:	4c 8b 84 24 90 00 00 	mov    0x90(%rsp),%r8
    3bdf:	00 
    3be0:	48 89 7c 24 50       	mov    %rdi,0x50(%rsp)
    3be5:	0f 1f 00             	nopl   (%rax)
    3be8:	48 8b 5c 24 10       	mov    0x10(%rsp),%rbx
    3bed:	49 8b 00             	mov    (%r8),%rax
    3bf0:	48 63 04 18          	movslq (%rax,%rbx,1),%rax
    3bf4:	48 89 c7             	mov    %rax,%rdi
    3bf7:	49 8d 74 c7 f8       	lea    -0x8(%r15,%rax,8),%rsi
    3bfc:	4c 8d 1c c5 18 00 00 	lea    0x18(,%rax,8),%r11
    3c03:	00 
    3c04:	48 8d 41 20          	lea    0x20(%rcx),%rax
    3c08:	48 39 c2             	cmp    %rax,%rdx
    3c0b:	0f 93 c3             	setae  %bl
    3c0e:	48 39 e9             	cmp    %rbp,%rcx
    3c11:	0f 93 c0             	setae  %al
    3c14:	09 d8                	or     %ebx,%eax
    3c16:	83 7c 24 30 02       	cmpl   $0x2,0x30(%rsp)
    3c1b:	0f 97 c3             	seta   %bl
    3c1e:	84 d8                	test   %bl,%al
    3c20:	0f 84 8a 01 00 00    	je     3db0 <_ZGVdM8vvvvvvvvvvvv_matrix_vector_code_1D+0x5a0>
    3c26:	4b 8d 04 1f          	lea    (%r15,%r11,1),%rax
    3c2a:	48 39 c2             	cmp    %rax,%rdx
    3c2d:	0f 93 44 24 08       	setae  0x8(%rsp)
    3c32:	48 39 ee             	cmp    %rbp,%rsi
    3c35:	0f b6 44 24 08       	movzbl 0x8(%rsp),%eax
    3c3a:	48 c7 44 24 08 00 00 	movq   $0x0,0x8(%rsp)
    3c41:	00 00 
    3c43:	0f 93 c3             	setae  %bl
    3c46:	08 d8                	or     %bl,%al
    3c48:	0f 84 62 01 00 00    	je     3db0 <_ZGVdM8vvvvvvvvvvvv_matrix_vector_code_1D+0x5a0>
    3c4e:	31 c0                	xor    %eax,%eax
    3c50:	c5 f9 10 24 01       	vmovupd (%rcx,%rax,1),%xmm4
    3c55:	c5 f9 10 2c 06       	vmovupd (%rsi,%rax,1),%xmm5
    3c5a:	c4 e3 5d 18 44 01 10 	vinsertf128 $0x1,0x10(%rcx,%rax,1),%ymm4,%ymm0
    3c61:	01 
    3c62:	c4 e3 55 18 4c 06 10 	vinsertf128 $0x1,0x10(%rsi,%rax,1),%ymm5,%ymm1
    3c69:	01 
    3c6a:	c5 f9 10 34 02       	vmovupd (%rdx,%rax,1),%xmm6
    3c6f:	c5 fd 59 c1          	vmulpd %ymm1,%ymm0,%ymm0
    3c73:	c4 e3 4d 18 4c 02 10 	vinsertf128 $0x1,0x10(%rdx,%rax,1),%ymm6,%ymm1
    3c7a:	01 
    3c7b:	c5 fd 58 c1          	vaddpd %ymm1,%ymm0,%ymm0
    3c7f:	c5 f8 11 04 02       	vmovups %xmm0,(%rdx,%rax,1)
    3c84:	c4 e3 7d 19 44 02 10 	vextractf128 $0x1,%ymm0,0x10(%rdx,%rax,1)
    3c8b:	01 
    3c8c:	48 83 c0 20          	add    $0x20,%rax
    3c90:	4c 39 e8             	cmp    %r13,%rax
    3c93:	75 bb                	jne    3c50 <_ZGVdM8vvvvvvvvvvvv_matrix_vector_code_1D+0x440>
    3c95:	8b 5c 24 34          	mov    0x34(%rsp),%ebx
    3c99:	41 39 de             	cmp    %ebx,%r14d
    3c9c:	0f 84 8e 00 00 00    	je     3d30 <_ZGVdM8vvvvvvvvvvvv_matrix_vector_code_1D+0x520>
    3ca2:	8b 44 24 58          	mov    0x58(%rsp),%eax
    3ca6:	44 8b 5c 24 38       	mov    0x38(%rsp),%r11d
    3cab:	42 8d 34 10          	lea    (%rax,%r10,1),%esi
    3caf:	8b 44 24 3c          	mov    0x3c(%rsp),%eax
    3cb3:	48 63 f6             	movslq %esi,%rsi
    3cb6:	01 f8                	add    %edi,%eax
    3cb8:	c4 c1 7b 10 04 f4    	vmovsd (%r12,%rsi,8),%xmm0
    3cbe:	48 98                	cltq   
    3cc0:	c4 c1 7b 59 04 c7    	vmulsd (%r15,%rax,8),%xmm0,%xmm0
    3cc6:	48 8b 44 24 40       	mov    0x40(%rsp),%rax
    3ccb:	c5 fb 58 00          	vaddsd (%rax),%xmm0,%xmm0
    3ccf:	c5 fb 11 00          	vmovsd %xmm0,(%rax)
    3cd3:	45 39 de             	cmp    %r11d,%r14d
    3cd6:	7e 58                	jle    3d30 <_ZGVdM8vvvvvvvvvvvv_matrix_vector_code_1D+0x520>
    3cd8:	8b 44 24 5c          	mov    0x5c(%rsp),%eax
    3cdc:	42 8d 34 10          	lea    (%rax,%r10,1),%esi
    3ce0:	8d 04 1f             	lea    (%rdi,%rbx,1),%eax
    3ce3:	48 98                	cltq   
    3ce5:	48 63 f6             	movslq %esi,%rsi
    3ce8:	c4 c1 7b 10 04 f4    	vmovsd (%r12,%rsi,8),%xmm0
    3cee:	c4 c1 7b 59 04 c7    	vmulsd (%r15,%rax,8),%xmm0,%xmm0
    3cf4:	48 8b 44 24 48       	mov    0x48(%rsp),%rax
    3cf9:	c5 fb 58 00          	vaddsd (%rax),%xmm0,%xmm0
    3cfd:	c5 fb 11 00          	vmovsd %xmm0,(%rax)
    3d01:	44 3b 74 24 60       	cmp    0x60(%rsp),%r14d
    3d06:	7e 28                	jle    3d30 <_ZGVdM8vvvvvvvvvvvv_matrix_vector_code_1D+0x520>
    3d08:	8b 44 24 64          	mov    0x64(%rsp),%eax
    3d0c:	44 01 df             	add    %r11d,%edi
    3d0f:	48 63 ff             	movslq %edi,%rdi
    3d12:	44 01 d0             	add    %r10d,%eax
    3d15:	48 98                	cltq   
    3d17:	c4 c1 7b 10 04 c4    	vmovsd (%r12,%rax,8),%xmm0
    3d1d:	48 8b 44 24 50       	mov    0x50(%rsp),%rax
    3d22:	c4 c1 7b 59 04 ff    	vmulsd (%r15,%rdi,8),%xmm0,%xmm0
    3d28:	c5 fb 58 00          	vaddsd (%rax),%xmm0,%xmm0
    3d2c:	c5 fb 11 00          	vmovsd %xmm0,(%rax)
    3d30:	49 83 c0 08          	add    $0x8,%r8
    3d34:	48 03 4c 24 20       	add    0x20(%rsp),%rcx
    3d39:	44 03 54 24 1c       	add    0x1c(%rsp),%r10d
    3d3e:	4c 3b 44 24 28       	cmp    0x28(%rsp),%r8
    3d43:	0f 85 9f fe ff ff    	jne    3be8 <_ZGVdM8vvvvvvvvvvvv_matrix_vector_code_1D+0x3d8>
    3d49:	48 83 44 24 68 08    	addq   $0x8,0x68(%rsp)
    3d4f:	8b 7c 24 7c          	mov    0x7c(%rsp),%edi
    3d53:	48 8b 44 24 68       	mov    0x68(%rsp),%rax
    3d58:	01 7c 24 78          	add    %edi,0x78(%rsp)
    3d5c:	48 3b 84 24 80 00 00 	cmp    0x80(%rsp),%rax
    3d63:	00 
    3d64:	0f 85 fe fd ff ff    	jne    3b68 <_ZGVdM8vvvvvvvvvvvv_matrix_vector_code_1D+0x358>
    3d6a:	48 83 84 24 a0 00 00 	addq   $0x4,0xa0(%rsp)
    3d71:	00 04 
    3d73:	48 8b 84 24 a0 00 00 	mov    0xa0(%rsp),%rax
    3d7a:	00 
    3d7b:	48 83 f8 20          	cmp    $0x20,%rax
    3d7f:	0f 85 9f fc ff ff    	jne    3a24 <_ZGVdM8vvvvvvvvvvvv_matrix_vector_code_1D+0x214>
    3d85:	48 8b 84 24 b8 02 00 	mov    0x2b8(%rsp),%rax
    3d8c:	00 
    3d8d:	64 48 33 04 25 28 00 	xor    %fs:0x28,%rax
    3d94:	00 00 
    3d96:	75 52                	jne    3dea <_ZGVdM8vvvvvvvvvvvv_matrix_vector_code_1D+0x5da>
    3d98:	48 81 c4 c8 02 00 00 	add    $0x2c8,%rsp
    3d9f:	5b                   	pop    %rbx
    3da0:	5d                   	pop    %rbp
    3da1:	41 5c                	pop    %r12
    3da3:	41 5d                	pop    %r13
    3da5:	41 5e                	pop    %r14
    3da7:	41 5f                	pop    %r15
    3da9:	c3                   	retq   
    3daa:	66 0f 1f 44 00 00    	nopw   0x0(%rax,%rax,1)
    3db0:	4b 8d 7c 1f e8       	lea    -0x18(%r15,%r11,1),%rdi
    3db5:	4c 8b 5c 24 70       	mov    0x70(%rsp),%r11
    3dba:	31 c0                	xor    %eax,%eax
    3dbc:	0f 1f 40 00          	nopl   0x0(%rax)
    3dc0:	c5 fb 10 44 c7 f8    	vmovsd -0x8(%rdi,%rax,8),%xmm0
    3dc6:	c5 fb 59 04 c1       	vmulsd (%rcx,%rax,8),%xmm0,%xmm0
    3dcb:	48 89 c6             	mov    %rax,%rsi
    3dce:	c4 c1 7b 58 44 c1 f8 	vaddsd -0x8(%r9,%rax,8),%xmm0,%xmm0
    3dd5:	c4 c1 7b 11 44 c1 f8 	vmovsd %xmm0,-0x8(%r9,%rax,8)
    3ddc:	48 83 c0 01          	add    $0x1,%rax
    3de0:	4c 39 de             	cmp    %r11,%rsi
    3de3:	75 db                	jne    3dc0 <_ZGVdM8vvvvvvvvvvvv_matrix_vector_code_1D+0x5b0>
    3de5:	e9 46 ff ff ff       	jmpq   3d30 <_ZGVdM8vvvvvvvvvvvv_matrix_vector_code_1D+0x520>
    3dea:	c5 f8 77             	vzeroupper 
    3ded:	e8 3e d3 ff ff       	callq  1130 <__stack_chk_fail@plt>
    3df2:	66 66 2e 0f 1f 84 00 	data16 nopw %cs:0x0(%rax,%rax,1)
    3df9:	00 00 00 00 
    3dfd:	0f 1f 00             	nopl   (%rax)

0000000000003e00 <_ZGVeN16vvvvvvvvvvvv_matrix_vector_code_1D>:
    3e00:	f3 0f 1e fa          	endbr64 
    3e04:	41 57                	push   %r15
    3e06:	41 56                	push   %r14
    3e08:	41 55                	push   %r13
    3e0a:	41 54                	push   %r12
    3e0c:	55                   	push   %rbp
    3e0d:	53                   	push   %rbx
    3e0e:	48 81 ec 08 05 00 00 	sub    $0x508,%rsp
    3e15:	64 48 8b 04 25 28 00 	mov    %fs:0x28,%rax
    3e1c:	00 00 
    3e1e:	48 89 84 24 f8 04 00 	mov    %rax,0x4f8(%rsp)
    3e25:	00 
    3e26:	31 c0                	xor    %eax,%eax
    3e28:	48 8d 84 24 f0 01 00 	lea    0x1f0(%rsp),%rax
    3e2f:	00 
    3e30:	62 f1 fe 48 7f ac 24 	vmovdqu64 %zmm5,0x330(%rsp)
    3e37:	30 03 00 00 
    3e3b:	62 f1 fd 48 6f 6c 24 	vmovdqa64 0x540(%rsp),%zmm5
    3e42:	15 
    3e43:	48 c7 84 24 d8 00 00 	movq   $0x0,0xd8(%rsp)
    3e4a:	00 00 00 00 00 
    3e4f:	62 f1 fe 48 7f ac 24 	vmovdqu64 %zmm5,0x3b0(%rsp)
    3e56:	b0 03 00 00 
    3e5a:	62 f1 fd 48 6f 6c 24 	vmovdqa64 0x580(%rsp),%zmm5
    3e61:	16 
    3e62:	62 f1 7e 48 7f 84 24 	vmovdqu32 %zmm0,0x130(%rsp)
    3e69:	30 01 00 00 
    3e6d:	62 f1 7e 48 7f ac 24 	vmovdqu32 %zmm5,0x1f0(%rsp)
    3e74:	f0 01 00 00 
    3e78:	62 f1 fd 48 6f 6c 24 	vmovdqa64 0x600(%rsp),%zmm5
    3e7f:	18 
    3e80:	62 f1 7e 48 7f 8c 24 	vmovdqu32 %zmm1,0x170(%rsp)
    3e87:	70 01 00 00 
    3e8b:	62 f1 fe 48 7f ac 24 	vmovdqu64 %zmm5,0x3f0(%rsp)
    3e92:	f0 03 00 00 
    3e96:	62 f1 fd 48 6f 6c 24 	vmovdqa64 0x640(%rsp),%zmm5
    3e9d:	19 
    3e9e:	62 f1 fe 48 7f 94 24 	vmovdqu64 %zmm2,0x270(%rsp)
    3ea5:	70 02 00 00 
    3ea9:	62 f1 fe 48 7f ac 24 	vmovdqu64 %zmm5,0x430(%rsp)
    3eb0:	30 04 00 00 
    3eb4:	62 f1 fd 48 6f 6c 24 	vmovdqa64 0x680(%rsp),%zmm5
    3ebb:	1a 
    3ebc:	62 f1 fe 48 7f 9c 24 	vmovdqu64 %zmm3,0x2b0(%rsp)
    3ec3:	b0 02 00 00 
    3ec7:	62 f1 7e 48 7f ac 24 	vmovdqu32 %zmm5,0x230(%rsp)
    3ece:	30 02 00 00 
    3ed2:	62 f1 fd 48 6f 6c 24 	vmovdqa64 0x700(%rsp),%zmm5
    3ed9:	1c 
    3eda:	62 f1 fe 48 7f a4 24 	vmovdqu64 %zmm4,0x2f0(%rsp)
    3ee1:	f0 02 00 00 
    3ee5:	62 f1 fe 48 7f ac 24 	vmovdqu64 %zmm5,0x470(%rsp)
    3eec:	70 04 00 00 
    3ef0:	62 f1 fd 48 6f 6c 24 	vmovdqa64 0x740(%rsp),%zmm5
    3ef7:	1d 
    3ef8:	62 f1 7e 48 7f b4 24 	vmovdqu32 %zmm6,0x1b0(%rsp)
    3eff:	b0 01 00 00 
    3f03:	62 f1 fe 48 7f bc 24 	vmovdqu64 %zmm7,0x370(%rsp)
    3f0a:	70 03 00 00 
    3f0e:	62 f1 fe 48 7f ac 24 	vmovdqu64 %zmm5,0x4b0(%rsp)
    3f15:	b0 04 00 00 
    3f19:	48 89 84 24 00 01 00 	mov    %rax,0x100(%rsp)
    3f20:	00 
    3f21:	48 8d 84 24 f0 02 00 	lea    0x2f0(%rsp),%rax
    3f28:	00 
    3f29:	48 89 84 24 f8 00 00 	mov    %rax,0xf8(%rsp)
    3f30:	00 
    3f31:	48 8d 84 24 70 04 00 	lea    0x470(%rsp),%rax
    3f38:	00 
    3f39:	48 89 84 24 10 01 00 	mov    %rax,0x110(%rsp)
    3f40:	00 
    3f41:	48 8d 84 24 70 03 00 	lea    0x370(%rsp),%rax
    3f48:	00 
    3f49:	48 89 84 24 18 01 00 	mov    %rax,0x118(%rsp)
    3f50:	00 
    3f51:	48 8d 84 24 b0 01 00 	lea    0x1b0(%rsp),%rax
    3f58:	00 
    3f59:	48 89 84 24 08 01 00 	mov    %rax,0x108(%rsp)
    3f60:	00 
    3f61:	48 8d 84 24 30 02 00 	lea    0x230(%rsp),%rax
    3f68:	00 
    3f69:	48 89 84 24 e0 00 00 	mov    %rax,0xe0(%rsp)
    3f70:	00 
    3f71:	48 8d 84 24 70 02 00 	lea    0x270(%rsp),%rax
    3f78:	00 
    3f79:	48 89 84 24 20 01 00 	mov    %rax,0x120(%rsp)
    3f80:	00 
    3f81:	48 8d 84 24 f0 03 00 	lea    0x3f0(%rsp),%rax
    3f88:	00 
    3f89:	48 89 84 24 f0 00 00 	mov    %rax,0xf0(%rsp)
    3f90:	00 
    3f91:	48 8d 84 24 30 01 00 	lea    0x130(%rsp),%rax
    3f98:	00 
    3f99:	48 89 84 24 e8 00 00 	mov    %rax,0xe8(%rsp)
    3fa0:	00 
    3fa1:	48 8d 84 24 70 01 00 	lea    0x170(%rsp),%rax
    3fa8:	00 
    3fa9:	48 89 84 24 28 01 00 	mov    %rax,0x128(%rsp)
    3fb0:	00 
    3fb1:	48 8b 84 24 d8 00 00 	mov    0xd8(%rsp),%rax
    3fb8:	00 
    3fb9:	48 8b 8c 24 00 01 00 	mov    0x100(%rsp),%rcx
    3fc0:	00 
    3fc1:	48 8b 94 24 20 01 00 	mov    0x120(%rsp),%rdx
    3fc8:	00 
    3fc9:	4c 8b 94 24 28 01 00 	mov    0x128(%rsp),%r10
    3fd0:	00 
    3fd1:	8b 34 01             	mov    (%rcx,%rax,1),%esi
    3fd4:	48 8b 8c 24 f8 00 00 	mov    0xf8(%rsp),%rcx
    3fdb:	00 
    3fdc:	48 8b 14 42          	mov    (%rdx,%rax,2),%rdx
    3fe0:	45 8b 34 02          	mov    (%r10,%rax,1),%r14d
    3fe4:	4c 8b 3c 41          	mov    (%rcx,%rax,2),%r15
    3fe8:	48 8b 8c 24 10 01 00 	mov    0x110(%rsp),%rcx
    3fef:	00 
    3ff0:	48 89 94 24 b0 00 00 	mov    %rdx,0xb0(%rsp)
    3ff7:	00 
    3ff8:	48 8b 94 24 f0 00 00 	mov    0xf0(%rsp),%rdx
    3fff:	00 
    4000:	4c 8b 0c 41          	mov    (%rcx,%rax,2),%r9
    4004:	48 8b 8c 24 18 01 00 	mov    0x118(%rsp),%rcx
    400b:	00 
    400c:	48 8b 3c 42          	mov    (%rdx,%rax,2),%rdi
    4010:	48 8b 94 24 e8 00 00 	mov    0xe8(%rsp),%rdx
    4017:	00 
    4018:	4c 8b 24 41          	mov    (%rcx,%rax,2),%r12
    401c:	48 8b 8c 24 08 01 00 	mov    0x108(%rsp),%rcx
    4023:	00 
    4024:	4c 89 8c 24 b8 00 00 	mov    %r9,0xb8(%rsp)
    402b:	00 
    402c:	48 63 14 02          	movslq (%rdx,%rax,1),%rdx
    4030:	8b 1c 01             	mov    (%rcx,%rax,1),%ebx
    4033:	48 8b 8c 24 e0 00 00 	mov    0xe0(%rsp),%rcx
    403a:	00 
    403b:	89 5c 24 14          	mov    %ebx,0x14(%rsp)
    403f:	8b 0c 01             	mov    (%rcx,%rax,1),%ecx
    4042:	85 f6                	test   %esi,%esi
    4044:	0f 8e 40 04 00 00    	jle    448a <_ZGVeN16vvvvvvvvvvvv_matrix_vector_code_1D+0x68a>
    404a:	89 d0                	mov    %edx,%eax
    404c:	48 c1 e2 02          	shl    $0x2,%rdx
    4050:	41 0f af c6          	imul   %r14d,%eax
    4054:	48 89 54 24 08       	mov    %rdx,0x8(%rsp)
    4059:	85 c9                	test   %ecx,%ecx
    405b:	0f 8e 29 04 00 00    	jle    448a <_ZGVeN16vvvvvvvvvvvv_matrix_vector_code_1D+0x68a>
    4061:	45 85 f6             	test   %r14d,%r14d
    4064:	0f 8e 20 04 00 00    	jle    448a <_ZGVeN16vvvvvvvvvvvv_matrix_vector_code_1D+0x68a>
    406a:	89 da                	mov    %ebx,%edx
    406c:	48 89 bc 24 90 00 00 	mov    %rdi,0x90(%rsp)
    4073:	00 
    4074:	c7 84 24 c0 00 00 00 	movl   $0x0,0xc0(%rsp)
    407b:	00 00 00 00 
    407f:	0f af d1             	imul   %ecx,%edx
    4082:	89 94 24 c4 00 00 00 	mov    %edx,0xc4(%rsp)
    4089:	8d 56 ff             	lea    -0x1(%rsi),%edx
    408c:	48 8d 74 d7 08       	lea    0x8(%rdi,%rdx,8),%rsi
    4091:	48 63 d3             	movslq %ebx,%rdx
    4094:	48 89 b4 24 c8 00 00 	mov    %rsi,0xc8(%rsp)
    409b:	00 
    409c:	48 8d 34 d5 00 00 00 	lea    0x0(,%rdx,8),%rsi
    40a3:	00 
    40a4:	8d 51 ff             	lea    -0x1(%rcx),%edx
    40a7:	44 89 f1             	mov    %r14d,%ecx
    40aa:	83 e1 f8             	and    $0xfffffff8,%ecx
    40ad:	48 89 74 24 18       	mov    %rsi,0x18(%rsp)
    40b2:	49 8d 74 d1 08       	lea    0x8(%r9,%rdx,8),%rsi
    40b7:	44 89 f2             	mov    %r14d,%edx
    40ba:	48 89 74 24 20       	mov    %rsi,0x20(%rsp)
    40bf:	8d 34 08             	lea    (%rax,%rcx,1),%esi
    40c2:	c1 ea 03             	shr    $0x3,%edx
    40c5:	89 74 24 4c          	mov    %esi,0x4c(%rsp)
    40c9:	8d 71 ff             	lea    -0x1(%rcx),%esi
    40cc:	48 c1 e2 06          	shl    $0x6,%rdx
    40d0:	89 74 24 34          	mov    %esi,0x34(%rsp)
    40d4:	8d 71 01             	lea    0x1(%rcx),%esi
    40d7:	49 89 d5             	mov    %rdx,%r13
    40da:	89 74 24 30          	mov    %esi,0x30(%rsp)
    40de:	01 c6                	add    %eax,%esi
    40e0:	89 74 24 5c          	mov    %esi,0x5c(%rsp)
    40e4:	8d 71 02             	lea    0x2(%rcx),%esi
    40e7:	89 74 24 48          	mov    %esi,0x48(%rsp)
    40eb:	01 c6                	add    %eax,%esi
    40ed:	89 74 24 6c          	mov    %esi,0x6c(%rsp)
    40f1:	8d 71 03             	lea    0x3(%rcx),%esi
    40f4:	89 74 24 58          	mov    %esi,0x58(%rsp)
    40f8:	01 c6                	add    %eax,%esi
    40fa:	89 74 24 7c          	mov    %esi,0x7c(%rsp)
    40fe:	8d 71 04             	lea    0x4(%rcx),%esi
    4101:	89 74 24 68          	mov    %esi,0x68(%rsp)
    4105:	01 c6                	add    %eax,%esi
    4107:	89 4c 24 2c          	mov    %ecx,0x2c(%rsp)
    410b:	89 b4 24 98 00 00 00 	mov    %esi,0x98(%rsp)
    4112:	8d 71 05             	lea    0x5(%rcx),%esi
    4115:	83 c1 06             	add    $0x6,%ecx
    4118:	89 8c 24 9c 00 00 00 	mov    %ecx,0x9c(%rsp)
    411f:	01 c1                	add    %eax,%ecx
    4121:	89 74 24 78          	mov    %esi,0x78(%rsp)
    4125:	01 c6                	add    %eax,%esi
    4127:	48 98                	cltq   
    4129:	89 8c 24 a4 00 00 00 	mov    %ecx,0xa4(%rsp)
    4130:	41 8d 4e ff          	lea    -0x1(%r14),%ecx
    4134:	48 89 84 24 d0 00 00 	mov    %rax,0xd0(%rsp)
    413b:	00 
    413c:	89 c8                	mov    %ecx,%eax
    413e:	89 b4 24 a0 00 00 00 	mov    %esi,0xa0(%rsp)
    4145:	89 4c 24 28          	mov    %ecx,0x28(%rsp)
    4149:	48 89 84 24 a8 00 00 	mov    %rax,0xa8(%rsp)
    4150:	00 
    4151:	0f 1f 80 00 00 00 00 	nopl   0x0(%rax)
    4158:	48 63 84 24 c0 00 00 	movslq 0xc0(%rsp),%rax
    415f:	00 
    4160:	48 8b 74 24 08       	mov    0x8(%rsp),%rsi
    4165:	8b 7c 24 34          	mov    0x34(%rsp),%edi
    4169:	48 8b 9c 24 b0 00 00 	mov    0xb0(%rsp),%rbx
    4170:	00 
    4171:	49 89 c0             	mov    %rax,%r8
    4174:	48 03 84 24 d0 00 00 	add    0xd0(%rsp),%rax
    417b:	00 
    417c:	4c 8b 8c 24 b8 00 00 	mov    0xb8(%rsp),%r9
    4183:	00 
    4184:	49 8d 0c c4          	lea    (%r12,%rax,8),%rcx
    4188:	48 8b 84 24 90 00 00 	mov    0x90(%rsp),%rax
    418f:	00 
    4190:	48 8b 00             	mov    (%rax),%rax
    4193:	48 63 34 30          	movslq (%rax,%rsi,1),%rsi
    4197:	01 f7                	add    %esi,%edi
    4199:	48 8d 6c f3 38       	lea    0x38(%rbx,%rsi,8),%rbp
    419e:	48 8d 54 f3 f8       	lea    -0x8(%rbx,%rsi,8),%rdx
    41a3:	48 89 f0             	mov    %rsi,%rax
    41a6:	48 63 ff             	movslq %edi,%rdi
    41a9:	03 44 24 78          	add    0x78(%rsp),%eax
    41ad:	4c 8d 14 f3          	lea    (%rbx,%rsi,8),%r10
    41b1:	48 8d 3c fb          	lea    (%rbx,%rdi,8),%rdi
    41b5:	48 98                	cltq   
    41b7:	48 89 7c 24 38       	mov    %rdi,0x38(%rsp)
    41bc:	8b 7c 24 2c          	mov    0x2c(%rsp),%edi
    41c0:	48 8d 04 c3          	lea    (%rbx,%rax,8),%rax
    41c4:	48 89 84 24 88 00 00 	mov    %rax,0x88(%rsp)
    41cb:	00 
    41cc:	01 f7                	add    %esi,%edi
    41ce:	48 63 ff             	movslq %edi,%rdi
    41d1:	48 8d 3c fb          	lea    (%rbx,%rdi,8),%rdi
    41d5:	48 89 7c 24 40       	mov    %rdi,0x40(%rsp)
    41da:	8b 7c 24 30          	mov    0x30(%rsp),%edi
    41de:	01 f7                	add    %esi,%edi
    41e0:	48 63 ff             	movslq %edi,%rdi
    41e3:	48 8d 3c fb          	lea    (%rbx,%rdi,8),%rdi
    41e7:	48 89 7c 24 50       	mov    %rdi,0x50(%rsp)
    41ec:	8b 7c 24 48          	mov    0x48(%rsp),%edi
    41f0:	01 f7                	add    %esi,%edi
    41f2:	48 63 ff             	movslq %edi,%rdi
    41f5:	48 8d 3c fb          	lea    (%rbx,%rdi,8),%rdi
    41f9:	48 89 7c 24 60       	mov    %rdi,0x60(%rsp)
    41fe:	8b 7c 24 58          	mov    0x58(%rsp),%edi
    4202:	01 f7                	add    %esi,%edi
    4204:	48 63 ff             	movslq %edi,%rdi
    4207:	48 8d 3c fb          	lea    (%rbx,%rdi,8),%rdi
    420b:	48 89 7c 24 70       	mov    %rdi,0x70(%rsp)
    4210:	8b 7c 24 68          	mov    0x68(%rsp),%edi
    4214:	01 f7                	add    %esi,%edi
    4216:	48 63 ff             	movslq %edi,%rdi
    4219:	48 8d 3c fb          	lea    (%rbx,%rdi,8),%rdi
    421d:	48 89 bc 24 80 00 00 	mov    %rdi,0x80(%rsp)
    4224:	00 
    4225:	0f 1f 00             	nopl   (%rax)
    4228:	48 8b 5c 24 08       	mov    0x8(%rsp),%rbx
    422d:	49 8b 01             	mov    (%r9),%rax
    4230:	48 63 04 18          	movslq (%rax,%rbx,1),%rax
    4234:	48 89 c6             	mov    %rax,%rsi
    4237:	49 8d 7c c7 f8       	lea    -0x8(%r15,%rax,8),%rdi
    423c:	4c 8d 1c c5 38 00 00 	lea    0x38(,%rax,8),%r11
    4243:	00 
    4244:	48 8d 41 40          	lea    0x40(%rcx),%rax
    4248:	48 39 c2             	cmp    %rax,%rdx
    424b:	0f 93 c3             	setae  %bl
    424e:	48 39 e9             	cmp    %rbp,%rcx
    4251:	0f 93 c0             	setae  %al
    4254:	09 d8                	or     %ebx,%eax
    4256:	83 7c 24 28 06       	cmpl   $0x6,0x28(%rsp)
    425b:	0f 97 c3             	seta   %bl
    425e:	84 d8                	test   %bl,%al
    4260:	0f 84 6a 02 00 00    	je     44d0 <_ZGVeN16vvvvvvvvvvvv_matrix_vector_code_1D+0x6d0>
    4266:	4b 8d 04 1f          	lea    (%r15,%r11,1),%rax
    426a:	48 39 c2             	cmp    %rax,%rdx
    426d:	0f 93 04 24          	setae  (%rsp)
    4271:	48 39 ef             	cmp    %rbp,%rdi
    4274:	0f b6 04 24          	movzbl (%rsp),%eax
    4278:	0f 93 c3             	setae  %bl
    427b:	48 c7 04 24 00 00 00 	movq   $0x0,(%rsp)
    4282:	00 
    4283:	08 d8                	or     %bl,%al
    4285:	0f 84 45 02 00 00    	je     44d0 <_ZGVeN16vvvvvvvvvvvv_matrix_vector_code_1D+0x6d0>
    428b:	31 c0                	xor    %eax,%eax
    428d:	0f 1f 00             	nopl   (%rax)
    4290:	62 f1 fd 48 10 04 01 	vmovupd (%rcx,%rax,1),%zmm0
    4297:	62 f1 fd 48 10 0c 02 	vmovupd (%rdx,%rax,1),%zmm1
    429e:	62 f2 f5 48 98 04 07 	vfmadd132pd (%rdi,%rax,1),%zmm1,%zmm0
    42a5:	62 f1 fd 48 11 04 02 	vmovupd %zmm0,(%rdx,%rax,1)
    42ac:	48 83 c0 40          	add    $0x40,%rax
    42b0:	4c 39 e8             	cmp    %r13,%rax
    42b3:	75 db                	jne    4290 <_ZGVeN16vvvvvvvvvvvv_matrix_vector_code_1D+0x490>
    42b5:	8b 5c 24 2c          	mov    0x2c(%rsp),%ebx
    42b9:	41 39 de             	cmp    %ebx,%r14d
    42bc:	0f 84 82 01 00 00    	je     4444 <_ZGVeN16vvvvvvvvvvvv_matrix_vector_code_1D+0x644>
    42c2:	8b 44 24 4c          	mov    0x4c(%rsp),%eax
    42c6:	4c 8b 5c 24 38       	mov    0x38(%rsp),%r11
    42cb:	42 8d 3c 00          	lea    (%rax,%r8,1),%edi
    42cf:	8b 44 24 34          	mov    0x34(%rsp),%eax
    42d3:	c4 c1 7b 10 1b       	vmovsd (%r11),%xmm3
    42d8:	48 63 ff             	movslq %edi,%rdi
    42db:	01 f0                	add    %esi,%eax
    42dd:	c4 c1 7b 10 04 fc    	vmovsd (%r12,%rdi,8),%xmm0
    42e3:	48 98                	cltq   
    42e5:	c4 c2 e1 99 04 c7    	vfmadd132sd (%r15,%rax,8),%xmm3,%xmm0
    42eb:	c4 c1 7b 11 03       	vmovsd %xmm0,(%r11)
    42f0:	44 8b 5c 24 30       	mov    0x30(%rsp),%r11d
    42f5:	45 39 de             	cmp    %r11d,%r14d
    42f8:	0f 8e 46 01 00 00    	jle    4444 <_ZGVeN16vvvvvvvvvvvv_matrix_vector_code_1D+0x644>
    42fe:	8b 44 24 5c          	mov    0x5c(%rsp),%eax
    4302:	41 8d 3c 00          	lea    (%r8,%rax,1),%edi
    4306:	8d 04 1e             	lea    (%rsi,%rbx,1),%eax
    4309:	48 8b 5c 24 40       	mov    0x40(%rsp),%rbx
    430e:	48 63 ff             	movslq %edi,%rdi
    4311:	48 98                	cltq   
    4313:	c5 fb 10 23          	vmovsd (%rbx),%xmm4
    4317:	c4 c1 7b 10 04 fc    	vmovsd (%r12,%rdi,8),%xmm0
    431d:	c4 c2 d9 99 04 c7    	vfmadd132sd (%r15,%rax,8),%xmm4,%xmm0
    4323:	c5 fb 11 03          	vmovsd %xmm0,(%rbx)
    4327:	8b 5c 24 48          	mov    0x48(%rsp),%ebx
    432b:	41 39 de             	cmp    %ebx,%r14d
    432e:	0f 8e 10 01 00 00    	jle    4444 <_ZGVeN16vvvvvvvvvvvv_matrix_vector_code_1D+0x644>
    4334:	8b 44 24 6c          	mov    0x6c(%rsp),%eax
    4338:	41 8d 3c 00          	lea    (%r8,%rax,1),%edi
    433c:	42 8d 04 1e          	lea    (%rsi,%r11,1),%eax
    4340:	4c 8b 5c 24 50       	mov    0x50(%rsp),%r11
    4345:	48 63 ff             	movslq %edi,%rdi
    4348:	48 98                	cltq   
    434a:	c4 c1 7b 10 2b       	vmovsd (%r11),%xmm5
    434f:	c4 c1 7b 10 04 fc    	vmovsd (%r12,%rdi,8),%xmm0
    4355:	c4 c2 d1 99 04 c7    	vfmadd132sd (%r15,%rax,8),%xmm5,%xmm0
    435b:	c4 c1 7b 11 03       	vmovsd %xmm0,(%r11)
    4360:	44 8b 5c 24 58       	mov    0x58(%rsp),%r11d
    4365:	45 39 de             	cmp    %r11d,%r14d
    4368:	0f 8e d6 00 00 00    	jle    4444 <_ZGVeN16vvvvvvvvvvvv_matrix_vector_code_1D+0x644>
    436e:	8b 44 24 7c          	mov    0x7c(%rsp),%eax
    4372:	41 8d 3c 00          	lea    (%r8,%rax,1),%edi
    4376:	8d 04 1e             	lea    (%rsi,%rbx,1),%eax
    4379:	48 8b 5c 24 60       	mov    0x60(%rsp),%rbx
    437e:	48 63 ff             	movslq %edi,%rdi
    4381:	48 98                	cltq   
    4383:	c5 fb 10 33          	vmovsd (%rbx),%xmm6
    4387:	c4 c1 7b 10 04 fc    	vmovsd (%r12,%rdi,8),%xmm0
    438d:	c4 c2 c9 99 04 c7    	vfmadd132sd (%r15,%rax,8),%xmm6,%xmm0
    4393:	c5 fb 11 03          	vmovsd %xmm0,(%rbx)
    4397:	8b 5c 24 68          	mov    0x68(%rsp),%ebx
    439b:	41 39 de             	cmp    %ebx,%r14d
    439e:	0f 8e a0 00 00 00    	jle    4444 <_ZGVeN16vvvvvvvvvvvv_matrix_vector_code_1D+0x644>
    43a4:	8b 84 24 98 00 00 00 	mov    0x98(%rsp),%eax
    43ab:	41 8d 3c 00          	lea    (%r8,%rax,1),%edi
    43af:	42 8d 04 1e          	lea    (%rsi,%r11,1),%eax
    43b3:	4c 8b 5c 24 70       	mov    0x70(%rsp),%r11
    43b8:	48 63 ff             	movslq %edi,%rdi
    43bb:	48 98                	cltq   
    43bd:	c4 c1 7b 10 3b       	vmovsd (%r11),%xmm7
    43c2:	c4 c1 7b 10 04 fc    	vmovsd (%r12,%rdi,8),%xmm0
    43c8:	c4 c2 c1 99 04 c7    	vfmadd132sd (%r15,%rax,8),%xmm7,%xmm0
    43ce:	c4 c1 7b 11 03       	vmovsd %xmm0,(%r11)
    43d3:	44 8b 5c 24 78       	mov    0x78(%rsp),%r11d
    43d8:	45 39 de             	cmp    %r11d,%r14d
    43db:	7e 67                	jle    4444 <_ZGVeN16vvvvvvvvvvvv_matrix_vector_code_1D+0x644>
    43dd:	8b 84 24 a0 00 00 00 	mov    0xa0(%rsp),%eax
    43e4:	41 8d 3c 00          	lea    (%r8,%rax,1),%edi
    43e8:	8d 04 1e             	lea    (%rsi,%rbx,1),%eax
    43eb:	48 8b 9c 24 80 00 00 	mov    0x80(%rsp),%rbx
    43f2:	00 
    43f3:	48 63 ff             	movslq %edi,%rdi
    43f6:	48 98                	cltq   
    43f8:	c4 c1 7b 10 04 fc    	vmovsd (%r12,%rdi,8),%xmm0
    43fe:	c5 fb 10 3b          	vmovsd (%rbx),%xmm7
    4402:	c4 c2 c1 99 04 c7    	vfmadd132sd (%r15,%rax,8),%xmm7,%xmm0
    4408:	c5 fb 11 03          	vmovsd %xmm0,(%rbx)
    440c:	44 3b b4 24 9c 00 00 	cmp    0x9c(%rsp),%r14d
    4413:	00 
    4414:	7e 2e                	jle    4444 <_ZGVeN16vvvvvvvvvvvv_matrix_vector_code_1D+0x644>
    4416:	8b 84 24 a4 00 00 00 	mov    0xa4(%rsp),%eax
    441d:	48 8b bc 24 88 00 00 	mov    0x88(%rsp),%rdi
    4424:	00 
    4425:	44 01 de             	add    %r11d,%esi
    4428:	48 63 f6             	movslq %esi,%rsi
    442b:	44 01 c0             	add    %r8d,%eax
    442e:	c4 c1 7b 10 04 f7    	vmovsd (%r15,%rsi,8),%xmm0
    4434:	c5 fb 10 37          	vmovsd (%rdi),%xmm6
    4438:	48 98                	cltq   
    443a:	c4 c2 c9 99 04 c4    	vfmadd132sd (%r12,%rax,8),%xmm6,%xmm0
    4440:	c5 fb 11 07          	vmovsd %xmm0,(%rdi)
    4444:	49 83 c1 08          	add    $0x8,%r9
    4448:	48 03 4c 24 18       	add    0x18(%rsp),%rcx
    444d:	44 03 44 24 14       	add    0x14(%rsp),%r8d
    4452:	4c 3b 4c 24 20       	cmp    0x20(%rsp),%r9
    4457:	0f 85 cb fd ff ff    	jne    4228 <_ZGVeN16vvvvvvvvvvvv_matrix_vector_code_1D+0x428>
    445d:	48 83 84 24 90 00 00 	addq   $0x8,0x90(%rsp)
    4464:	00 08 
    4466:	8b 8c 24 c4 00 00 00 	mov    0xc4(%rsp),%ecx
    446d:	48 8b 84 24 90 00 00 	mov    0x90(%rsp),%rax
    4474:	00 
    4475:	01 8c 24 c0 00 00 00 	add    %ecx,0xc0(%rsp)
    447c:	48 3b 84 24 c8 00 00 	cmp    0xc8(%rsp),%rax
    4483:	00 
    4484:	0f 85 ce fc ff ff    	jne    4158 <_ZGVeN16vvvvvvvvvvvv_matrix_vector_code_1D+0x358>
    448a:	48 83 84 24 d8 00 00 	addq   $0x4,0xd8(%rsp)
    4491:	00 04 
    4493:	48 8b 84 24 d8 00 00 	mov    0xd8(%rsp),%rax
    449a:	00 
    449b:	48 83 f8 40          	cmp    $0x40,%rax
    449f:	0f 85 0c fb ff ff    	jne    3fb1 <_ZGVeN16vvvvvvvvvvvv_matrix_vector_code_1D+0x1b1>
    44a5:	48 8b 84 24 f8 04 00 	mov    0x4f8(%rsp),%rax
    44ac:	00 
    44ad:	64 48 33 04 25 28 00 	xor    %fs:0x28,%rax
    44b4:	00 00 
    44b6:	75 53                	jne    450b <_ZGVeN16vvvvvvvvvvvv_matrix_vector_code_1D+0x70b>
    44b8:	48 81 c4 08 05 00 00 	add    $0x508,%rsp
    44bf:	5b                   	pop    %rbx
    44c0:	5d                   	pop    %rbp
    44c1:	41 5c                	pop    %r12
    44c3:	41 5d                	pop    %r13
    44c5:	41 5e                	pop    %r14
    44c7:	41 5f                	pop    %r15
    44c9:	c3                   	retq   
    44ca:	66 0f 1f 44 00 00    	nopw   0x0(%rax,%rax,1)
    44d0:	4b 8d 7c 1f c8       	lea    -0x38(%r15,%r11,1),%rdi
    44d5:	4c 8b 9c 24 a8 00 00 	mov    0xa8(%rsp),%r11
    44dc:	00 
    44dd:	31 c0                	xor    %eax,%eax
    44df:	90                   	nop
    44e0:	c5 fb 10 44 c7 f8    	vmovsd -0x8(%rdi,%rax,8),%xmm0
    44e6:	c4 c1 7b 10 54 c2 f8 	vmovsd -0x8(%r10,%rax,8),%xmm2
    44ed:	48 89 c6             	mov    %rax,%rsi
    44f0:	c4 e2 e9 99 04 c1    	vfmadd132sd (%rcx,%rax,8),%xmm2,%xmm0
    44f6:	c4 c1 7b 11 44 c2 f8 	vmovsd %xmm0,-0x8(%r10,%rax,8)
    44fd:	48 83 c0 01          	add    $0x1,%rax
    4501:	4c 39 de             	cmp    %r11,%rsi
    4504:	75 da                	jne    44e0 <_ZGVeN16vvvvvvvvvvvv_matrix_vector_code_1D+0x6e0>
    4506:	e9 39 ff ff ff       	jmpq   4444 <_ZGVeN16vvvvvvvvvvvv_matrix_vector_code_1D+0x644>
    450b:	c5 f8 77             	vzeroupper 
    450e:	e8 1d cc ff ff       	callq  1130 <__stack_chk_fail@plt>
    4513:	66 66 2e 0f 1f 84 00 	data16 nopw %cs:0x0(%rax,%rax,1)
    451a:	00 00 00 00 
    451e:	66 90                	xchg   %ax,%ax

0000000000004520 <_ZGVeM16vvvvvvvvvvvv_matrix_vector_code_1D>:
    4520:	f3 0f 1e fa          	endbr64 
    4524:	41 57                	push   %r15
    4526:	41 56                	push   %r14
    4528:	41 55                	push   %r13
    452a:	41 54                	push   %r12
    452c:	55                   	push   %rbp
    452d:	53                   	push   %rbx
    452e:	48 81 ec c8 04 00 00 	sub    $0x4c8,%rsp
    4535:	89 bc 24 ec 00 00 00 	mov    %edi,0xec(%rsp)
    453c:	64 48 8b 04 25 28 00 	mov    %fs:0x28,%rax
    4543:	00 00 
    4545:	48 89 84 24 b8 04 00 	mov    %rax,0x4b8(%rsp)
    454c:	00 
    454d:	31 c0                	xor    %eax,%eax
    454f:	62 f1 fe 48 7f ac 24 	vmovdqu64 %zmm5,0x2f0(%rsp)
    4556:	f0 02 00 00 
    455a:	62 f1 fd 48 6f 6c 24 	vmovdqa64 0x500(%rsp),%zmm5
    4561:	14 
    4562:	62 f1 7e 48 7f 84 24 	vmovdqu32 %zmm0,0xf0(%rsp)
    4569:	f0 00 00 00 
    456d:	62 f1 fe 48 7f ac 24 	vmovdqu64 %zmm5,0x370(%rsp)
    4574:	70 03 00 00 
    4578:	62 f1 fd 48 6f 6c 24 	vmovdqa64 0x540(%rsp),%zmm5
    457f:	15 
    4580:	62 f1 7e 48 7f 8c 24 	vmovdqu32 %zmm1,0x130(%rsp)
    4587:	30 01 00 00 
    458b:	62 f1 7e 48 7f ac 24 	vmovdqu32 %zmm5,0x1b0(%rsp)
    4592:	b0 01 00 00 
    4596:	62 f1 fd 48 6f 6c 24 	vmovdqa64 0x5c0(%rsp),%zmm5
    459d:	17 
    459e:	62 f1 fe 48 7f 94 24 	vmovdqu64 %zmm2,0x230(%rsp)
    45a5:	30 02 00 00 
    45a9:	62 f1 fe 48 7f ac 24 	vmovdqu64 %zmm5,0x3b0(%rsp)
    45b0:	b0 03 00 00 
    45b4:	62 f1 fd 48 6f 6c 24 	vmovdqa64 0x600(%rsp),%zmm5
    45bb:	18 
    45bc:	62 f1 fe 48 7f 9c 24 	vmovdqu64 %zmm3,0x270(%rsp)
    45c3:	70 02 00 00 
    45c7:	62 f1 fe 48 7f ac 24 	vmovdqu64 %zmm5,0x3f0(%rsp)
    45ce:	f0 03 00 00 
    45d2:	62 f1 fd 48 6f 6c 24 	vmovdqa64 0x640(%rsp),%zmm5
    45d9:	19 
    45da:	62 f1 fe 48 7f a4 24 	vmovdqu64 %zmm4,0x2b0(%rsp)
    45e1:	b0 02 00 00 
    45e5:	62 f1 7e 48 7f ac 24 	vmovdqu32 %zmm5,0x1f0(%rsp)
    45ec:	f0 01 00 00 
    45f0:	62 f1 fd 48 6f 6c 24 	vmovdqa64 0x6c0(%rsp),%zmm5
    45f7:	1b 
    45f8:	62 f1 7e 48 7f b4 24 	vmovdqu32 %zmm6,0x170(%rsp)
    45ff:	70 01 00 00 
    4603:	62 f1 fe 48 7f ac 24 	vmovdqu64 %zmm5,0x430(%rsp)
    460a:	30 04 00 00 
    460e:	62 f1 fd 48 6f 6c 24 	vmovdqa64 0x700(%rsp),%zmm5
    4615:	1c 
    4616:	62 f1 fe 48 7f bc 24 	vmovdqu64 %zmm7,0x330(%rsp)
    461d:	30 03 00 00 
    4621:	62 f1 fe 48 7f ac 24 	vmovdqu64 %zmm5,0x470(%rsp)
    4628:	70 04 00 00 
    462c:	48 c7 84 24 e0 00 00 	movq   $0x0,0xe0(%rsp)
    4633:	00 00 00 00 00 
    4638:	8b 8c 24 ec 00 00 00 	mov    0xec(%rsp),%ecx
    463f:	48 8b 84 24 e0 00 00 	mov    0xe0(%rsp),%rax
    4646:	00 
    4647:	0f a3 c1             	bt     %eax,%ecx
    464a:	0f 83 c0 04 00 00    	jae    4b10 <_ZGVeM16vvvvvvvvvvvv_matrix_vector_code_1D+0x5f0>
    4650:	8b b4 84 b0 01 00 00 	mov    0x1b0(%rsp,%rax,4),%esi
    4657:	85 f6                	test   %esi,%esi
    4659:	0f 8e b1 04 00 00    	jle    4b10 <_ZGVeM16vvvvvvvvvvvv_matrix_vector_code_1D+0x5f0>
    465f:	48 8b 94 c4 30 02 00 	mov    0x230(%rsp,%rax,8),%rdx
    4666:	00 
    4667:	4c 8b 8c c4 30 04 00 	mov    0x430(%rsp,%rax,8),%r9
    466e:	00 
    466f:	8b 9c 84 70 01 00 00 	mov    0x170(%rsp,%rax,4),%ebx
    4676:	44 8b b4 84 30 01 00 	mov    0x130(%rsp,%rax,4),%r14d
    467d:	00 
    467e:	48 89 94 24 c8 00 00 	mov    %rdx,0xc8(%rsp)
    4685:	00 
    4686:	48 63 94 84 f0 00 00 	movslq 0xf0(%rsp,%rax,4),%rdx
    468d:	00 
    468e:	8b 8c 84 f0 01 00 00 	mov    0x1f0(%rsp,%rax,4),%ecx
    4695:	4c 8b bc c4 b0 02 00 	mov    0x2b0(%rsp,%rax,8),%r15
    469c:	00 
    469d:	4c 89 8c 24 d0 00 00 	mov    %r9,0xd0(%rsp)
    46a4:	00 
    46a5:	4c 8b a4 c4 30 03 00 	mov    0x330(%rsp,%rax,8),%r12
    46ac:	00 
    46ad:	48 8b bc c4 b0 03 00 	mov    0x3b0(%rsp,%rax,8),%rdi
    46b4:	00 
    46b5:	89 d0                	mov    %edx,%eax
    46b7:	48 c1 e2 02          	shl    $0x2,%rdx
    46bb:	89 5c 24 30          	mov    %ebx,0x30(%rsp)
    46bf:	41 0f af c6          	imul   %r14d,%eax
    46c3:	48 89 54 24 18       	mov    %rdx,0x18(%rsp)
    46c8:	85 c9                	test   %ecx,%ecx
    46ca:	0f 8e 40 04 00 00    	jle    4b10 <_ZGVeM16vvvvvvvvvvvv_matrix_vector_code_1D+0x5f0>
    46d0:	45 85 f6             	test   %r14d,%r14d
    46d3:	0f 8e 37 04 00 00    	jle    4b10 <_ZGVeM16vvvvvvvvvvvv_matrix_vector_code_1D+0x5f0>
    46d9:	89 da                	mov    %ebx,%edx
    46db:	48 89 bc 24 a0 00 00 	mov    %rdi,0xa0(%rsp)
    46e2:	00 
    46e3:	c7 84 24 b4 00 00 00 	movl   $0x0,0xb4(%rsp)
    46ea:	00 00 00 00 
    46ee:	0f af d1             	imul   %ecx,%edx
    46f1:	89 94 24 e8 00 00 00 	mov    %edx,0xe8(%rsp)
    46f8:	8d 56 ff             	lea    -0x1(%rsi),%edx
    46fb:	48 8d 74 d7 08       	lea    0x8(%rdi,%rdx,8),%rsi
    4700:	48 63 d3             	movslq %ebx,%rdx
    4703:	48 89 b4 24 c0 00 00 	mov    %rsi,0xc0(%rsp)
    470a:	00 
    470b:	48 8d 34 d5 00 00 00 	lea    0x0(,%rdx,8),%rsi
    4712:	00 
    4713:	8d 51 ff             	lea    -0x1(%rcx),%edx
    4716:	49 8d 4c d1 08       	lea    0x8(%r9,%rdx,8),%rcx
    471b:	48 89 74 24 20       	mov    %rsi,0x20(%rsp)
    4720:	44 89 f2             	mov    %r14d,%edx
    4723:	48 89 4c 24 28       	mov    %rcx,0x28(%rsp)
    4728:	44 89 f1             	mov    %r14d,%ecx
    472b:	c1 ea 03             	shr    $0x3,%edx
    472e:	83 e1 f8             	and    $0xfffffff8,%ecx
    4731:	48 c1 e2 06          	shl    $0x6,%rdx
    4735:	8d 34 08             	lea    (%rax,%rcx,1),%esi
    4738:	89 4c 24 38          	mov    %ecx,0x38(%rsp)
    473c:	49 89 d5             	mov    %rdx,%r13
    473f:	89 74 24 58          	mov    %esi,0x58(%rsp)
    4743:	8d 71 ff             	lea    -0x1(%rcx),%esi
    4746:	89 74 24 48          	mov    %esi,0x48(%rsp)
    474a:	8d 71 01             	lea    0x1(%rcx),%esi
    474d:	89 74 24 3c          	mov    %esi,0x3c(%rsp)
    4751:	01 c6                	add    %eax,%esi
    4753:	89 74 24 68          	mov    %esi,0x68(%rsp)
    4757:	8d 71 02             	lea    0x2(%rcx),%esi
    475a:	89 74 24 4c          	mov    %esi,0x4c(%rsp)
    475e:	01 c6                	add    %eax,%esi
    4760:	89 74 24 78          	mov    %esi,0x78(%rsp)
    4764:	8d 71 03             	lea    0x3(%rcx),%esi
    4767:	89 74 24 5c          	mov    %esi,0x5c(%rsp)
    476b:	01 c6                	add    %eax,%esi
    476d:	89 b4 24 98 00 00 00 	mov    %esi,0x98(%rsp)
    4774:	8d 71 04             	lea    0x4(%rcx),%esi
    4777:	89 74 24 6c          	mov    %esi,0x6c(%rsp)
    477b:	01 c6                	add    %eax,%esi
    477d:	89 b4 24 9c 00 00 00 	mov    %esi,0x9c(%rsp)
    4784:	8d 71 05             	lea    0x5(%rcx),%esi
    4787:	83 c1 06             	add    $0x6,%ecx
    478a:	89 8c 24 a8 00 00 00 	mov    %ecx,0xa8(%rsp)
    4791:	01 c1                	add    %eax,%ecx
    4793:	89 74 24 7c          	mov    %esi,0x7c(%rsp)
    4797:	01 c6                	add    %eax,%esi
    4799:	48 98                	cltq   
    479b:	89 8c 24 b0 00 00 00 	mov    %ecx,0xb0(%rsp)
    47a2:	41 8d 4e ff          	lea    -0x1(%r14),%ecx
    47a6:	48 89 84 24 d8 00 00 	mov    %rax,0xd8(%rsp)
    47ad:	00 
    47ae:	89 c8                	mov    %ecx,%eax
    47b0:	89 b4 24 ac 00 00 00 	mov    %esi,0xac(%rsp)
    47b7:	89 4c 24 34          	mov    %ecx,0x34(%rsp)
    47bb:	48 89 84 24 b8 00 00 	mov    %rax,0xb8(%rsp)
    47c2:	00 
    47c3:	0f 1f 44 00 00       	nopl   0x0(%rax,%rax,1)
    47c8:	48 63 84 24 b4 00 00 	movslq 0xb4(%rsp),%rax
    47cf:	00 
    47d0:	48 8b 74 24 18       	mov    0x18(%rsp),%rsi
    47d5:	8b 7c 24 48          	mov    0x48(%rsp),%edi
    47d9:	48 8b 9c 24 c8 00 00 	mov    0xc8(%rsp),%rbx
    47e0:	00 
    47e1:	49 89 c0             	mov    %rax,%r8
    47e4:	48 03 84 24 d8 00 00 	add    0xd8(%rsp),%rax
    47eb:	00 
    47ec:	4c 8b 8c 24 d0 00 00 	mov    0xd0(%rsp),%r9
    47f3:	00 
    47f4:	49 8d 0c c4          	lea    (%r12,%rax,8),%rcx
    47f8:	48 8b 84 24 a0 00 00 	mov    0xa0(%rsp),%rax
    47ff:	00 
    4800:	48 8b 00             	mov    (%rax),%rax
    4803:	48 63 34 30          	movslq (%rax,%rsi,1),%rsi
    4807:	01 f7                	add    %esi,%edi
    4809:	48 8d 6c f3 38       	lea    0x38(%rbx,%rsi,8),%rbp
    480e:	48 8d 54 f3 f8       	lea    -0x8(%rbx,%rsi,8),%rdx
    4813:	48 89 f0             	mov    %rsi,%rax
    4816:	48 63 ff             	movslq %edi,%rdi
    4819:	03 44 24 7c          	add    0x7c(%rsp),%eax
    481d:	4c 8d 14 f3          	lea    (%rbx,%rsi,8),%r10
    4821:	48 8d 3c fb          	lea    (%rbx,%rdi,8),%rdi
    4825:	48 98                	cltq   
    4827:	48 89 7c 24 40       	mov    %rdi,0x40(%rsp)
    482c:	8b 7c 24 38          	mov    0x38(%rsp),%edi
    4830:	48 8d 04 c3          	lea    (%rbx,%rax,8),%rax
    4834:	48 89 84 24 90 00 00 	mov    %rax,0x90(%rsp)
    483b:	00 
    483c:	01 f7                	add    %esi,%edi
    483e:	48 63 ff             	movslq %edi,%rdi
    4841:	48 8d 3c fb          	lea    (%rbx,%rdi,8),%rdi
    4845:	48 89 7c 24 50       	mov    %rdi,0x50(%rsp)
    484a:	8b 7c 24 3c          	mov    0x3c(%rsp),%edi
    484e:	01 f7                	add    %esi,%edi
    4850:	48 63 ff             	movslq %edi,%rdi
    4853:	48 8d 3c fb          	lea    (%rbx,%rdi,8),%rdi
    4857:	48 89 7c 24 60       	mov    %rdi,0x60(%rsp)
    485c:	8b 7c 24 4c          	mov    0x4c(%rsp),%edi
    4860:	01 f7                	add    %esi,%edi
    4862:	48 63 ff             	movslq %edi,%rdi
    4865:	48 8d 3c fb          	lea    (%rbx,%rdi,8),%rdi
    4869:	48 89 7c 24 70       	mov    %rdi,0x70(%rsp)
    486e:	8b 7c 24 5c          	mov    0x5c(%rsp),%edi
    4872:	01 f7                	add    %esi,%edi
    4874:	48 63 ff             	movslq %edi,%rdi
    4877:	48 8d 3c fb          	lea    (%rbx,%rdi,8),%rdi
    487b:	48 89 bc 24 80 00 00 	mov    %rdi,0x80(%rsp)
    4882:	00 
    4883:	8b 7c 24 6c          	mov    0x6c(%rsp),%edi
    4887:	01 f7                	add    %esi,%edi
    4889:	48 63 ff             	movslq %edi,%rdi
    488c:	48 8d 3c fb          	lea    (%rbx,%rdi,8),%rdi
    4890:	48 89 bc 24 88 00 00 	mov    %rdi,0x88(%rsp)
    4897:	00 
    4898:	0f 1f 84 00 00 00 00 	nopl   0x0(%rax,%rax,1)
    489f:	00 
    48a0:	48 8b 5c 24 18       	mov    0x18(%rsp),%rbx
    48a5:	49 8b 01             	mov    (%r9),%rax
    48a8:	48 63 04 18          	movslq (%rax,%rbx,1),%rax
    48ac:	48 89 c6             	mov    %rax,%rsi
    48af:	49 8d 7c c7 f8       	lea    -0x8(%r15,%rax,8),%rdi
    48b4:	4c 8d 1c c5 38 00 00 	lea    0x38(,%rax,8),%r11
    48bb:	00 
    48bc:	48 8d 41 40          	lea    0x40(%rcx),%rax
    48c0:	48 39 c2             	cmp    %rax,%rdx
    48c3:	0f 93 c3             	setae  %bl
    48c6:	48 39 e9             	cmp    %rbp,%rcx
    48c9:	0f 93 c0             	setae  %al
    48cc:	09 d8                	or     %ebx,%eax
    48ce:	83 7c 24 34 06       	cmpl   $0x6,0x34(%rsp)
    48d3:	0f 97 c3             	seta   %bl
    48d6:	84 d8                	test   %bl,%al
    48d8:	0f 84 72 02 00 00    	je     4b50 <_ZGVeM16vvvvvvvvvvvv_matrix_vector_code_1D+0x630>
    48de:	4b 8d 04 1f          	lea    (%r15,%r11,1),%rax
    48e2:	48 39 c2             	cmp    %rax,%rdx
    48e5:	0f 93 44 24 10       	setae  0x10(%rsp)
    48ea:	48 39 ef             	cmp    %rbp,%rdi
    48ed:	0f b6 44 24 10       	movzbl 0x10(%rsp),%eax
    48f2:	48 c7 44 24 10 00 00 	movq   $0x0,0x10(%rsp)
    48f9:	00 00 
    48fb:	0f 93 c3             	setae  %bl
    48fe:	08 d8                	or     %bl,%al
    4900:	0f 84 4a 02 00 00    	je     4b50 <_ZGVeM16vvvvvvvvvvvv_matrix_vector_code_1D+0x630>
    4906:	31 c0                	xor    %eax,%eax
    4908:	0f 1f 84 00 00 00 00 	nopl   0x0(%rax,%rax,1)
    490f:	00 
    4910:	62 f1 fd 48 10 04 01 	vmovupd (%rcx,%rax,1),%zmm0
    4917:	62 f1 fd 48 10 0c 02 	vmovupd (%rdx,%rax,1),%zmm1
    491e:	62 f2 f5 48 98 04 07 	vfmadd132pd (%rdi,%rax,1),%zmm1,%zmm0
    4925:	62 f1 fd 48 11 04 02 	vmovupd %zmm0,(%rdx,%rax,1)
    492c:	48 83 c0 40          	add    $0x40,%rax
    4930:	4c 39 e8             	cmp    %r13,%rax
    4933:	75 db                	jne    4910 <_ZGVeM16vvvvvvvvvvvv_matrix_vector_code_1D+0x3f0>
    4935:	8b 5c 24 38          	mov    0x38(%rsp),%ebx
    4939:	41 39 de             	cmp    %ebx,%r14d
    493c:	0f 84 88 01 00 00    	je     4aca <_ZGVeM16vvvvvvvvvvvv_matrix_vector_code_1D+0x5aa>
    4942:	8b 44 24 58          	mov    0x58(%rsp),%eax
    4946:	4c 8b 5c 24 40       	mov    0x40(%rsp),%r11
    494b:	42 8d 3c 00          	lea    (%rax,%r8,1),%edi
    494f:	8b 44 24 48          	mov    0x48(%rsp),%eax
    4953:	c4 c1 7b 10 1b       	vmovsd (%r11),%xmm3
    4958:	48 63 ff             	movslq %edi,%rdi
    495b:	01 f0                	add    %esi,%eax
    495d:	c4 c1 7b 10 04 fc    	vmovsd (%r12,%rdi,8),%xmm0
    4963:	48 98                	cltq   
    4965:	c4 c2 e1 99 04 c7    	vfmadd132sd (%r15,%rax,8),%xmm3,%xmm0
    496b:	c4 c1 7b 11 03       	vmovsd %xmm0,(%r11)
    4970:	44 8b 5c 24 3c       	mov    0x3c(%rsp),%r11d
    4975:	45 39 de             	cmp    %r11d,%r14d
    4978:	0f 8e 4c 01 00 00    	jle    4aca <_ZGVeM16vvvvvvvvvvvv_matrix_vector_code_1D+0x5aa>
    497e:	8b 44 24 68          	mov    0x68(%rsp),%eax
    4982:	41 8d 3c 00          	lea    (%r8,%rax,1),%edi
    4986:	8d 04 1e             	lea    (%rsi,%rbx,1),%eax
    4989:	48 8b 5c 24 50       	mov    0x50(%rsp),%rbx
    498e:	48 63 ff             	movslq %edi,%rdi
    4991:	48 98                	cltq   
    4993:	c5 fb 10 23          	vmovsd (%rbx),%xmm4
    4997:	c4 c1 7b 10 04 fc    	vmovsd (%r12,%rdi,8),%xmm0
    499d:	c4 c2 d9 99 04 c7    	vfmadd132sd (%r15,%rax,8),%xmm4,%xmm0
    49a3:	c5 fb 11 03          	vmovsd %xmm0,(%rbx)
    49a7:	8b 5c 24 4c          	mov    0x4c(%rsp),%ebx
    49ab:	41 39 de             	cmp    %ebx,%r14d
    49ae:	0f 8e 16 01 00 00    	jle    4aca <_ZGVeM16vvvvvvvvvvvv_matrix_vector_code_1D+0x5aa>
    49b4:	8b 44 24 78          	mov    0x78(%rsp),%eax
    49b8:	41 8d 3c 00          	lea    (%r8,%rax,1),%edi
    49bc:	42 8d 04 1e          	lea    (%rsi,%r11,1),%eax
    49c0:	4c 8b 5c 24 60       	mov    0x60(%rsp),%r11
    49c5:	48 63 ff             	movslq %edi,%rdi
    49c8:	48 98                	cltq   
    49ca:	c4 c1 7b 10 2b       	vmovsd (%r11),%xmm5
    49cf:	c4 c1 7b 10 04 fc    	vmovsd (%r12,%rdi,8),%xmm0
    49d5:	c4 c2 d1 99 04 c7    	vfmadd132sd (%r15,%rax,8),%xmm5,%xmm0
    49db:	c4 c1 7b 11 03       	vmovsd %xmm0,(%r11)
    49e0:	44 8b 5c 24 5c       	mov    0x5c(%rsp),%r11d
    49e5:	45 39 de             	cmp    %r11d,%r14d
    49e8:	0f 8e dc 00 00 00    	jle    4aca <_ZGVeM16vvvvvvvvvvvv_matrix_vector_code_1D+0x5aa>
    49ee:	8b 84 24 98 00 00 00 	mov    0x98(%rsp),%eax
    49f5:	41 8d 3c 00          	lea    (%r8,%rax,1),%edi
    49f9:	8d 04 1e             	lea    (%rsi,%rbx,1),%eax
    49fc:	48 8b 5c 24 70       	mov    0x70(%rsp),%rbx
    4a01:	48 63 ff             	movslq %edi,%rdi
    4a04:	48 98                	cltq   
    4a06:	c5 fb 10 33          	vmovsd (%rbx),%xmm6
    4a0a:	c4 c1 7b 10 04 fc    	vmovsd (%r12,%rdi,8),%xmm0
    4a10:	c4 c2 c9 99 04 c7    	vfmadd132sd (%r15,%rax,8),%xmm6,%xmm0
    4a16:	c5 fb 11 03          	vmovsd %xmm0,(%rbx)
    4a1a:	8b 5c 24 6c          	mov    0x6c(%rsp),%ebx
    4a1e:	41 39 de             	cmp    %ebx,%r14d
    4a21:	0f 8e a3 00 00 00    	jle    4aca <_ZGVeM16vvvvvvvvvvvv_matrix_vector_code_1D+0x5aa>
    4a27:	8b 84 24 9c 00 00 00 	mov    0x9c(%rsp),%eax
    4a2e:	41 8d 3c 00          	lea    (%r8,%rax,1),%edi
    4a32:	42 8d 04 1e          	lea    (%rsi,%r11,1),%eax
    4a36:	4c 8b 9c 24 80 00 00 	mov    0x80(%rsp),%r11
    4a3d:	00 
    4a3e:	48 63 ff             	movslq %edi,%rdi
    4a41:	48 98                	cltq   
    4a43:	c4 c1 7b 10 3b       	vmovsd (%r11),%xmm7
    4a48:	c4 c1 7b 10 04 fc    	vmovsd (%r12,%rdi,8),%xmm0
    4a4e:	c4 c2 c1 99 04 c7    	vfmadd132sd (%r15,%rax,8),%xmm7,%xmm0
    4a54:	c4 c1 7b 11 03       	vmovsd %xmm0,(%r11)
    4a59:	44 8b 5c 24 7c       	mov    0x7c(%rsp),%r11d
    4a5e:	45 39 de             	cmp    %r11d,%r14d
    4a61:	7e 67                	jle    4aca <_ZGVeM16vvvvvvvvvvvv_matrix_vector_code_1D+0x5aa>
    4a63:	8b 84 24 ac 00 00 00 	mov    0xac(%rsp),%eax
    4a6a:	41 8d 3c 00          	lea    (%r8,%rax,1),%edi
    4a6e:	8d 04 1e             	lea    (%rsi,%rbx,1),%eax
    4a71:	48 8b 9c 24 88 00 00 	mov    0x88(%rsp),%rbx
    4a78:	00 
    4a79:	48 63 ff             	movslq %edi,%rdi
    4a7c:	48 98                	cltq   
    4a7e:	c4 c1 7b 10 04 fc    	vmovsd (%r12,%rdi,8),%xmm0
    4a84:	c5 fb 10 3b          	vmovsd (%rbx),%xmm7
    4a88:	c4 c2 c1 99 04 c7    	vfmadd132sd (%r15,%rax,8),%xmm7,%xmm0
    4a8e:	c5 fb 11 03          	vmovsd %xmm0,(%rbx)
    4a92:	44 3b b4 24 a8 00 00 	cmp    0xa8(%rsp),%r14d
    4a99:	00 
    4a9a:	7e 2e                	jle    4aca <_ZGVeM16vvvvvvvvvvvv_matrix_vector_code_1D+0x5aa>
    4a9c:	8b 84 24 b0 00 00 00 	mov    0xb0(%rsp),%eax
    4aa3:	48 8b bc 24 90 00 00 	mov    0x90(%rsp),%rdi
    4aaa:	00 
    4aab:	44 01 de             	add    %r11d,%esi
    4aae:	48 63 f6             	movslq %esi,%rsi
    4ab1:	44 01 c0             	add    %r8d,%eax
    4ab4:	c4 c1 7b 10 04 f7    	vmovsd (%r15,%rsi,8),%xmm0
    4aba:	c5 fb 10 37          	vmovsd (%rdi),%xmm6
    4abe:	48 98                	cltq   
    4ac0:	c4 c2 c9 99 04 c4    	vfmadd132sd (%r12,%rax,8),%xmm6,%xmm0
    4ac6:	c5 fb 11 07          	vmovsd %xmm0,(%rdi)
    4aca:	49 83 c1 08          	add    $0x8,%r9
    4ace:	48 03 4c 24 20       	add    0x20(%rsp),%rcx
    4ad3:	44 03 44 24 30       	add    0x30(%rsp),%r8d
    4ad8:	4c 3b 4c 24 28       	cmp    0x28(%rsp),%r9
    4add:	0f 85 bd fd ff ff    	jne    48a0 <_ZGVeM16vvvvvvvvvvvv_matrix_vector_code_1D+0x380>
    4ae3:	48 83 84 24 a0 00 00 	addq   $0x8,0xa0(%rsp)
    4aea:	00 08 
    4aec:	8b 8c 24 e8 00 00 00 	mov    0xe8(%rsp),%ecx
    4af3:	48 8b 84 24 a0 00 00 	mov    0xa0(%rsp),%rax
    4afa:	00 
    4afb:	01 8c 24 b4 00 00 00 	add    %ecx,0xb4(%rsp)
    4b02:	48 3b 84 24 c0 00 00 	cmp    0xc0(%rsp),%rax
    4b09:	00 
    4b0a:	0f 85 b8 fc ff ff    	jne    47c8 <_ZGVeM16vvvvvvvvvvvv_matrix_vector_code_1D+0x2a8>
    4b10:	48 83 84 24 e0 00 00 	addq   $0x1,0xe0(%rsp)
    4b17:	00 01 
    4b19:	48 8b 84 24 e0 00 00 	mov    0xe0(%rsp),%rax
    4b20:	00 
    4b21:	48 83 f8 10          	cmp    $0x10,%rax
    4b25:	0f 85 0d fb ff ff    	jne    4638 <_ZGVeM16vvvvvvvvvvvv_matrix_vector_code_1D+0x118>
    4b2b:	48 8b 84 24 b8 04 00 	mov    0x4b8(%rsp),%rax
    4b32:	00 
    4b33:	64 48 33 04 25 28 00 	xor    %fs:0x28,%rax
    4b3a:	00 00 
    4b3c:	75 4d                	jne    4b8b <_ZGVeM16vvvvvvvvvvvv_matrix_vector_code_1D+0x66b>
    4b3e:	48 81 c4 c8 04 00 00 	add    $0x4c8,%rsp
    4b45:	5b                   	pop    %rbx
    4b46:	5d                   	pop    %rbp
    4b47:	41 5c                	pop    %r12
    4b49:	41 5d                	pop    %r13
    4b4b:	41 5e                	pop    %r14
    4b4d:	41 5f                	pop    %r15
    4b4f:	c3                   	retq   
    4b50:	4b 8d 7c 1f c8       	lea    -0x38(%r15,%r11,1),%rdi
    4b55:	4c 8b 9c 24 b8 00 00 	mov    0xb8(%rsp),%r11
    4b5c:	00 
    4b5d:	31 c0                	xor    %eax,%eax
    4b5f:	90                   	nop
    4b60:	c5 fb 10 44 c7 f8    	vmovsd -0x8(%rdi,%rax,8),%xmm0
    4b66:	c4 c1 7b 10 54 c2 f8 	vmovsd -0x8(%r10,%rax,8),%xmm2
    4b6d:	48 89 c6             	mov    %rax,%rsi
    4b70:	c4 e2 e9 99 04 c1    	vfmadd132sd (%rcx,%rax,8),%xmm2,%xmm0
    4b76:	c4 c1 7b 11 44 c2 f8 	vmovsd %xmm0,-0x8(%r10,%rax,8)
    4b7d:	48 83 c0 01          	add    $0x1,%rax
    4b81:	4c 39 de             	cmp    %r11,%rsi
    4b84:	75 da                	jne    4b60 <_ZGVeM16vvvvvvvvvvvv_matrix_vector_code_1D+0x640>
    4b86:	e9 3f ff ff ff       	jmpq   4aca <_ZGVeM16vvvvvvvvvvvv_matrix_vector_code_1D+0x5aa>
    4b8b:	c5 f8 77             	vzeroupper 
    4b8e:	e8 9d c5 ff ff       	callq  1130 <__stack_chk_fail@plt>
    4b93:	66 2e 0f 1f 84 00 00 	nopw   %cs:0x0(%rax,%rax,1)
    4b9a:	00 00 00 
    4b9d:	0f 1f 00             	nopl   (%rax)

0000000000004ba0 <ialloc_1d>:
    4ba0:	f3 0f 1e fa          	endbr64 
    4ba4:	48 63 ff             	movslq %edi,%rdi
    4ba7:	48 c1 e7 02          	shl    $0x2,%rdi
    4bab:	e9 90 c5 ff ff       	jmpq   1140 <malloc@plt>

0000000000004bb0 <ialloc_2d>:
    4bb0:	f3 0f 1e fa          	endbr64 
    4bb4:	41 55                	push   %r13
    4bb6:	48 63 ff             	movslq %edi,%rdi
    4bb9:	41 54                	push   %r12
    4bbb:	49 89 fc             	mov    %rdi,%r12
    4bbe:	48 c1 e7 03          	shl    $0x3,%rdi
    4bc2:	55                   	push   %rbp
    4bc3:	48 63 ee             	movslq %esi,%rbp
    4bc6:	53                   	push   %rbx
    4bc7:	48 83 ec 08          	sub    $0x8,%rsp
    4bcb:	e8 70 c5 ff ff       	callq  1140 <malloc@plt>
    4bd0:	49 89 c5             	mov    %rax,%r13
    4bd3:	45 85 e4             	test   %r12d,%r12d
    4bd6:	7e 2d                	jle    4c05 <ialloc_2d+0x55>
    4bd8:	48 89 c3             	mov    %rax,%rbx
    4bdb:	41 8d 44 24 ff       	lea    -0x1(%r12),%eax
    4be0:	48 c1 e5 02          	shl    $0x2,%rbp
    4be4:	4d 8d 64 c5 08       	lea    0x8(%r13,%rax,8),%r12
    4be9:	0f 1f 80 00 00 00 00 	nopl   0x0(%rax)
    4bf0:	48 89 ef             	mov    %rbp,%rdi
    4bf3:	48 83 c3 08          	add    $0x8,%rbx
    4bf7:	e8 44 c5 ff ff       	callq  1140 <malloc@plt>
    4bfc:	48 89 43 f8          	mov    %rax,-0x8(%rbx)
    4c00:	4c 39 e3             	cmp    %r12,%rbx
    4c03:	75 eb                	jne    4bf0 <ialloc_2d+0x40>
    4c05:	48 83 c4 08          	add    $0x8,%rsp
    4c09:	4c 89 e8             	mov    %r13,%rax
    4c0c:	5b                   	pop    %rbx
    4c0d:	5d                   	pop    %rbp
    4c0e:	41 5c                	pop    %r12
    4c10:	41 5d                	pop    %r13
    4c12:	c3                   	retq   
    4c13:	66 66 2e 0f 1f 84 00 	data16 nopw %cs:0x0(%rax,%rax,1)
    4c1a:	00 00 00 00 
    4c1e:	66 90                	xchg   %ax,%ax

0000000000004c20 <dalloc_1d>:
    4c20:	f3 0f 1e fa          	endbr64 
    4c24:	48 63 ff             	movslq %edi,%rdi
    4c27:	48 c1 e7 03          	shl    $0x3,%rdi
    4c2b:	e9 10 c5 ff ff       	jmpq   1140 <malloc@plt>

0000000000004c30 <dalloc_3d>:
    4c30:	f3 0f 1e fa          	endbr64 
    4c34:	41 57                	push   %r15
    4c36:	48 63 ff             	movslq %edi,%rdi
    4c39:	41 89 d7             	mov    %edx,%r15d
    4c3c:	41 56                	push   %r14
    4c3e:	41 89 f6             	mov    %esi,%r14d
    4c41:	41 55                	push   %r13
    4c43:	49 89 fd             	mov    %rdi,%r13
    4c46:	48 c1 e7 03          	shl    $0x3,%rdi
    4c4a:	41 54                	push   %r12
    4c4c:	55                   	push   %rbp
    4c4d:	53                   	push   %rbx
    4c4e:	48 83 ec 18          	sub    $0x18,%rsp
    4c52:	e8 e9 c4 ff ff       	callq  1140 <malloc@plt>
    4c57:	48 89 44 24 08       	mov    %rax,0x8(%rsp)
    4c5c:	45 85 ed             	test   %r13d,%r13d
    4c5f:	7e 7d                	jle    4cde <dalloc_3d+0xae>
    4c61:	48 89 c5             	mov    %rax,%rbp
    4c64:	49 63 de             	movslq %r14d,%rbx
    4c67:	49 89 c4             	mov    %rax,%r12
    4c6a:	41 8d 45 ff          	lea    -0x1(%r13),%eax
    4c6e:	48 c1 e3 03          	shl    $0x3,%rbx
    4c72:	4c 8d 6c c5 08       	lea    0x8(%rbp,%rax,8),%r13
    4c77:	66 0f 1f 84 00 00 00 	nopw   0x0(%rax,%rax,1)
    4c7e:	00 00 
    4c80:	48 89 df             	mov    %rbx,%rdi
    4c83:	48 83 c5 08          	add    $0x8,%rbp
    4c87:	e8 b4 c4 ff ff       	callq  1140 <malloc@plt>
    4c8c:	48 89 45 f8          	mov    %rax,-0x8(%rbp)
    4c90:	4c 39 ed             	cmp    %r13,%rbp
    4c93:	75 eb                	jne    4c80 <dalloc_3d+0x50>
    4c95:	49 63 ef             	movslq %r15d,%rbp
    4c98:	48 c1 e5 03          	shl    $0x3,%rbp
    4c9c:	45 85 f6             	test   %r14d,%r14d
    4c9f:	7e 3d                	jle    4cde <dalloc_3d+0xae>
    4ca1:	41 8d 46 ff          	lea    -0x1(%r14),%eax
    4ca5:	4c 8d 34 c5 08 00 00 	lea    0x8(,%rax,8),%r14
    4cac:	00 
    4cad:	0f 1f 00             	nopl   (%rax)
    4cb0:	4d 8b 3c 24          	mov    (%r12),%r15
    4cb4:	4b 8d 1c 3e          	lea    (%r14,%r15,1),%rbx
    4cb8:	0f 1f 84 00 00 00 00 	nopl   0x0(%rax,%rax,1)
    4cbf:	00 
    4cc0:	48 89 ef             	mov    %rbp,%rdi
    4cc3:	49 83 c7 08          	add    $0x8,%r15
    4cc7:	e8 74 c4 ff ff       	callq  1140 <malloc@plt>
    4ccc:	49 89 47 f8          	mov    %rax,-0x8(%r15)
    4cd0:	4c 39 fb             	cmp    %r15,%rbx
    4cd3:	75 eb                	jne    4cc0 <dalloc_3d+0x90>
    4cd5:	49 83 c4 08          	add    $0x8,%r12
    4cd9:	4d 39 ec             	cmp    %r13,%r12
    4cdc:	75 d2                	jne    4cb0 <dalloc_3d+0x80>
    4cde:	48 8b 44 24 08       	mov    0x8(%rsp),%rax
    4ce3:	48 83 c4 18          	add    $0x18,%rsp
    4ce7:	5b                   	pop    %rbx
    4ce8:	5d                   	pop    %rbp
    4ce9:	41 5c                	pop    %r12
    4ceb:	41 5d                	pop    %r13
    4ced:	41 5e                	pop    %r14
    4cef:	41 5f                	pop    %r15
    4cf1:	c3                   	retq   
    4cf2:	66 2e 0f 1f 84 00 00 	nopw   %cs:0x0(%rax,%rax,1)
    4cf9:	00 00 00 
    4cfc:	0f 1f 40 00          	nopl   0x0(%rax)

0000000000004d00 <__libc_csu_init>:
    4d00:	f3 0f 1e fa          	endbr64 
    4d04:	41 57                	push   %r15
    4d06:	4c 8d 3d 5b 20 00 00 	lea    0x205b(%rip),%r15        # 6d68 <__frame_dummy_init_array_entry>
    4d0d:	41 56                	push   %r14
    4d0f:	49 89 d6             	mov    %rdx,%r14
    4d12:	41 55                	push   %r13
    4d14:	49 89 f5             	mov    %rsi,%r13
    4d17:	41 54                	push   %r12
    4d19:	41 89 fc             	mov    %edi,%r12d
    4d1c:	55                   	push   %rbp
    4d1d:	48 8d 2d 4c 20 00 00 	lea    0x204c(%rip),%rbp        # 6d70 <__do_global_dtors_aux_fini_array_entry>
    4d24:	53                   	push   %rbx
    4d25:	4c 29 fd             	sub    %r15,%rbp
    4d28:	48 83 ec 08          	sub    $0x8,%rsp
    4d2c:	e8 cf c2 ff ff       	callq  1000 <_init>
    4d31:	48 c1 fd 03          	sar    $0x3,%rbp
    4d35:	74 1f                	je     4d56 <__libc_csu_init+0x56>
    4d37:	31 db                	xor    %ebx,%ebx
    4d39:	0f 1f 80 00 00 00 00 	nopl   0x0(%rax)
    4d40:	4c 89 f2             	mov    %r14,%rdx
    4d43:	4c 89 ee             	mov    %r13,%rsi
    4d46:	44 89 e7             	mov    %r12d,%edi
    4d49:	41 ff 14 df          	callq  *(%r15,%rbx,8)
    4d4d:	48 83 c3 01          	add    $0x1,%rbx
    4d51:	48 39 dd             	cmp    %rbx,%rbp
    4d54:	75 ea                	jne    4d40 <__libc_csu_init+0x40>
    4d56:	48 83 c4 08          	add    $0x8,%rsp
    4d5a:	5b                   	pop    %rbx
    4d5b:	5d                   	pop    %rbp
    4d5c:	41 5c                	pop    %r12
    4d5e:	41 5d                	pop    %r13
    4d60:	41 5e                	pop    %r14
    4d62:	41 5f                	pop    %r15
    4d64:	c3                   	retq   
    4d65:	66 66 2e 0f 1f 84 00 	data16 nopw %cs:0x0(%rax,%rax,1)
    4d6c:	00 00 00 00 

0000000000004d70 <__libc_csu_fini>:
    4d70:	f3 0f 1e fa          	endbr64 
    4d74:	c3                   	retq   

Disassembly of section .fini:

0000000000004d78 <_fini>:
    4d78:	f3 0f 1e fa          	endbr64 
    4d7c:	48 83 ec 08          	sub    $0x8,%rsp
    4d80:	48 83 c4 08          	add    $0x8,%rsp
    4d84:	c3                   	retq   
